ARM GAS  C:\Users\Susanna\AppData\Local\Temp\cckYCaUG.s 			page 1


   1              		.syntax unified
   2              		.cpu cortex-m3
   3              		.fpu softvfp
   4              		.eabi_attribute 20, 1
   5              		.eabi_attribute 21, 1
   6              		.eabi_attribute 23, 3
   7              		.eabi_attribute 24, 1
   8              		.eabi_attribute 25, 1
   9              		.eabi_attribute 26, 1
  10              		.eabi_attribute 30, 1
  11              		.eabi_attribute 34, 1
  12              		.eabi_attribute 18, 4
  13              		.thumb
  14              		.syntax unified
  15              		.file	"25LC256.c"
  16              		.text
  17              	.Ltext0:
  18              		.cfi_sections	.debug_frame
  19              		.section	.text.EEPROM_readStatus,"ax",%progbits
  20              		.align	2
  21              		.global	EEPROM_readStatus
  22              		.thumb
  23              		.thumb_func
  24              		.type	EEPROM_readStatus, %function
  25              	EEPROM_readStatus:
  26              	.LFB0:
  27              		.file 1 "25LC256.c"
   1:25LC256.c     **** /**
   2:25LC256.c     ****  * @file 25LC256.c
   3:25LC256.c     ****  * @brief Functions required to interface with the SPI EEPROM 25LC256.
   4:25LC256.c     ****  * 
   5:25LC256.c     ****  * This c file contains the API functions to interface
   6:25LC256.c     ****  * with the SPI EEPROM 25LC256.
   7:25LC256.c     ****  *
   8:25LC256.c     ****  * @author Mattia Pesenti
   9:25LC256.c     ****  * @date 24 March, 2020
  10:25LC256.c     **** */
  11:25LC256.c     **** 
  12:25LC256.c     **** #include "25LC256.h"
  13:25LC256.c     **** 
  14:25LC256.c     **** uint8_t eeprom_Status;
  15:25LC256.c     **** 
  16:25LC256.c     **** /** ====== Helper Functions ====== **/
  17:25LC256.c     **** 
  18:25LC256.c     **** uint8_t EEPROM_readStatus() {
  28              		.loc 1 18 0
  29              		.cfi_startproc
  30              		@ args = 0, pretend = 0, frame = 0
  31              		@ frame_needed = 0, uses_anonymous_args = 0
  32 0000 08B5     		push	{r3, lr}
  33              		.cfi_def_cfa_offset 8
  34              		.cfi_offset 3, -8
  35              		.cfi_offset 14, -4
  19:25LC256.c     ****     
  20:25LC256.c     **** 	return SPI_Interface_ReadByte(SPI_EEPROM_RDSR);
  36              		.loc 1 20 0
  37 0002 0520     		movs	r0, #5
ARM GAS  C:\Users\Susanna\AppData\Local\Temp\cckYCaUG.s 			page 2


  38 0004 FFF7FEFF 		bl	SPI_Interface_ReadByte
  39              	.LVL0:
  21:25LC256.c     ****     
  22:25LC256.c     **** }
  40              		.loc 1 22 0
  41 0008 08BD     		pop	{r3, pc}
  42              		.cfi_endproc
  43              	.LFE0:
  44              		.size	EEPROM_readStatus, .-EEPROM_readStatus
  45 000a 00BF     		.section	.text.EEPROM_writeEnable,"ax",%progbits
  46              		.align	2
  47              		.global	EEPROM_writeEnable
  48              		.thumb
  49              		.thumb_func
  50              		.type	EEPROM_writeEnable, %function
  51              	EEPROM_writeEnable:
  52              	.LFB1:
  23:25LC256.c     **** 
  24:25LC256.c     **** void EEPROM_writeEnable() {
  53              		.loc 1 24 0
  54              		.cfi_startproc
  55              		@ args = 0, pretend = 0, frame = 0
  56              		@ frame_needed = 0, uses_anonymous_args = 0
  57 0000 08B5     		push	{r3, lr}
  58              		.cfi_def_cfa_offset 8
  59              		.cfi_offset 3, -8
  60              		.cfi_offset 14, -4
  25:25LC256.c     ****     
  26:25LC256.c     **** 	/* Send 1-byte Instruction */
  27:25LC256.c     **** 	SPI_Interface_tradeByte(SPI_EEPROM_WREN);
  61              		.loc 1 27 0
  62 0002 0620     		movs	r0, #6
  63 0004 FFF7FEFF 		bl	SPI_Interface_tradeByte
  64              	.LVL1:
  65 0008 08BD     		pop	{r3, pc}
  66              		.cfi_endproc
  67              	.LFE1:
  68              		.size	EEPROM_writeEnable, .-EEPROM_writeEnable
  69 000a 00BF     		.section	.text.EEPROM_readByte,"ax",%progbits
  70              		.align	2
  71              		.global	EEPROM_readByte
  72              		.thumb
  73              		.thumb_func
  74              		.type	EEPROM_readByte, %function
  75              	EEPROM_readByte:
  76              	.LFB2:
  28:25LC256.c     ****     
  29:25LC256.c     **** }
  30:25LC256.c     **** 
  31:25LC256.c     **** /** ====== User-level Functions ====== **/
  32:25LC256.c     **** 
  33:25LC256.c     **** uint8_t EEPROM_readByte(uint16_t addr) {
  77              		.loc 1 33 0
  78              		.cfi_startproc
  79              		@ args = 0, pretend = 0, frame = 8
  80              		@ frame_needed = 0, uses_anonymous_args = 0
  81              	.LVL2:
ARM GAS  C:\Users\Susanna\AppData\Local\Temp\cckYCaUG.s 			page 3


  82 0000 00B5     		push	{lr}
  83              		.cfi_def_cfa_offset 4
  84              		.cfi_offset 14, -4
  85 0002 83B0     		sub	sp, sp, #12
  86              		.cfi_def_cfa_offset 16
  34:25LC256.c     **** 
  35:25LC256.c     **** 	/* Prepare the TX data packet: instruction + address */
  36:25LC256.c     **** 	uint8_t dataTX[3] = {SPI_EEPROM_READ, ((addr & 0xFF00) >> 8), (addr & 0x00FF)};
  87              		.loc 1 36 0
  88 0004 0321     		movs	r1, #3
  89 0006 8DF80410 		strb	r1, [sp, #4]
  90 000a 030A     		lsrs	r3, r0, #8
  91 000c 8DF80530 		strb	r3, [sp, #5]
  92 0010 8DF80600 		strb	r0, [sp, #6]
  37:25LC256.c     **** 	
  38:25LC256.c     **** 	/* Prepare the RX byte */
  39:25LC256.c     **** 	uint8_t dataRX;
  40:25LC256.c     **** 	
  41:25LC256.c     **** 	/* Read 1 byte from addr */
  42:25LC256.c     ****     SPI_Interface_Multi_RW(dataTX,3, &dataRX,1);
  93              		.loc 1 42 0
  94 0014 0123     		movs	r3, #1
  95 0016 0DEB0102 		add	r2, sp, r1
  96 001a 01A8     		add	r0, sp, #4
  97              	.LVL3:
  98 001c FFF7FEFF 		bl	SPI_Interface_Multi_RW
  99              	.LVL4:
  43:25LC256.c     **** 	
  44:25LC256.c     **** 	return dataRX;   
  45:25LC256.c     **** }
 100              		.loc 1 45 0
 101 0020 9DF80300 		ldrb	r0, [sp, #3]	@ zero_extendqisi2
 102 0024 03B0     		add	sp, sp, #12
 103              		.cfi_def_cfa_offset 4
 104              		@ sp needed
 105 0026 5DF804FB 		ldr	pc, [sp], #4
 106              		.cfi_endproc
 107              	.LFE2:
 108              		.size	EEPROM_readByte, .-EEPROM_readByte
 109 002a 00BF     		.section	.text.EEPROM_writeByte,"ax",%progbits
 110              		.align	2
 111              		.global	EEPROM_writeByte
 112              		.thumb
 113              		.thumb_func
 114              		.type	EEPROM_writeByte, %function
 115              	EEPROM_writeByte:
 116              	.LFB3:
  46:25LC256.c     **** 
  47:25LC256.c     **** void EEPROM_writeByte(uint16_t addr, uint8_t dataByte) {
 117              		.loc 1 47 0
 118              		.cfi_startproc
 119              		@ args = 0, pretend = 0, frame = 8
 120              		@ frame_needed = 0, uses_anonymous_args = 0
 121              	.LVL5:
 122 0000 30B5     		push	{r4, r5, lr}
 123              		.cfi_def_cfa_offset 12
 124              		.cfi_offset 4, -12
ARM GAS  C:\Users\Susanna\AppData\Local\Temp\cckYCaUG.s 			page 4


 125              		.cfi_offset 5, -8
 126              		.cfi_offset 14, -4
 127 0002 83B0     		sub	sp, sp, #12
 128              		.cfi_def_cfa_offset 24
 129 0004 0446     		mov	r4, r0
 130 0006 0D46     		mov	r5, r1
  48:25LC256.c     ****     
  49:25LC256.c     ****     /* Enable WRITE operations */
  50:25LC256.c     ****     EEPROM_writeEnable();
 131              		.loc 1 50 0
 132 0008 FFF7FEFF 		bl	EEPROM_writeEnable
 133              	.LVL6:
  51:25LC256.c     **** 	
  52:25LC256.c     **** 	/* Prepare the TX packet */
  53:25LC256.c     ****     uint8_t dataTX[4] = {SPI_EEPROM_WRITE, ((addr & 0xFF00) >> 8), (addr & 0x00FF), dataByte};
 134              		.loc 1 53 0
 135 000c 0223     		movs	r3, #2
 136 000e 8DF80430 		strb	r3, [sp, #4]
 137 0012 230A     		lsrs	r3, r4, #8
 138 0014 8DF80530 		strb	r3, [sp, #5]
 139 0018 8DF80640 		strb	r4, [sp, #6]
 140 001c 8DF80750 		strb	r5, [sp, #7]
  54:25LC256.c     **** 	/* Nothing to RX... */
  55:25LC256.c     **** 	uint8_t temp = 0;
 141              		.loc 1 55 0
 142 0020 0023     		movs	r3, #0
 143 0022 02AA     		add	r2, sp, #8
 144 0024 02F8053D 		strb	r3, [r2, #-5]!
  56:25LC256.c     **** 	
  57:25LC256.c     **** 	/* Write 1 byte to addr */
  58:25LC256.c     **** 	SPI_Interface_Multi_RW(dataTX, 4, &temp, 0);
 145              		.loc 1 58 0
 146 0028 0421     		movs	r1, #4
 147 002a 0DEB0100 		add	r0, sp, r1
 148 002e FFF7FEFF 		bl	SPI_Interface_Multi_RW
 149              	.LVL7:
  59:25LC256.c     **** 	    
  60:25LC256.c     **** }
 150              		.loc 1 60 0
 151 0032 03B0     		add	sp, sp, #12
 152              		.cfi_def_cfa_offset 12
 153              		@ sp needed
 154 0034 30BD     		pop	{r4, r5, pc}
 155              		.cfi_endproc
 156              	.LFE3:
 157              		.size	EEPROM_writeByte, .-EEPROM_writeByte
 158 0036 00BF     		.section	.text.EEPROM_readPage,"ax",%progbits
 159              		.align	2
 160              		.global	EEPROM_readPage
 161              		.thumb
 162              		.thumb_func
 163              		.type	EEPROM_readPage, %function
 164              	EEPROM_readPage:
 165              	.LFB4:
  61:25LC256.c     **** 
  62:25LC256.c     **** void EEPROM_readPage(uint16_t addr, uint8_t* dataRX, uint8_t nBytes) {
 166              		.loc 1 62 0
ARM GAS  C:\Users\Susanna\AppData\Local\Temp\cckYCaUG.s 			page 5


 167              		.cfi_startproc
 168              		@ args = 0, pretend = 0, frame = 8
 169              		@ frame_needed = 0, uses_anonymous_args = 0
 170              	.LVL8:
 171 0000 10B5     		push	{r4, lr}
 172              		.cfi_def_cfa_offset 8
 173              		.cfi_offset 4, -8
 174              		.cfi_offset 14, -4
 175 0002 82B0     		sub	sp, sp, #8
 176              		.cfi_def_cfa_offset 16
  63:25LC256.c     ****     
  64:25LC256.c     **** 	/* Prepare the TX data packet: instruction + address */
  65:25LC256.c     **** 	uint8_t dataTX[3] = {SPI_EEPROM_READ, ((addr & 0xFF00) >> 8), (addr & 0x00FF)};
 177              		.loc 1 65 0
 178 0004 0324     		movs	r4, #3
 179 0006 8DF80440 		strb	r4, [sp, #4]
 180 000a 030A     		lsrs	r3, r0, #8
 181 000c 8DF80530 		strb	r3, [sp, #5]
 182 0010 8DF80600 		strb	r0, [sp, #6]
  66:25LC256.c     **** 	
  67:25LC256.c     **** 	/* Read the nBytes */
  68:25LC256.c     **** 	SPI_Interface_Multi_RW(dataTX, 3, dataRX, nBytes);
 183              		.loc 1 68 0
 184 0014 1346     		mov	r3, r2
 185 0016 0A46     		mov	r2, r1
 186              	.LVL9:
 187 0018 2146     		mov	r1, r4
 188              	.LVL10:
 189 001a 01A8     		add	r0, sp, #4
 190              	.LVL11:
 191 001c FFF7FEFF 		bl	SPI_Interface_Multi_RW
 192              	.LVL12:
  69:25LC256.c     **** 		
  70:25LC256.c     **** }
 193              		.loc 1 70 0
 194 0020 02B0     		add	sp, sp, #8
 195              		.cfi_def_cfa_offset 8
 196              		@ sp needed
 197 0022 10BD     		pop	{r4, pc}
 198              		.cfi_endproc
 199              	.LFE4:
 200              		.size	EEPROM_readPage, .-EEPROM_readPage
 201              		.section	.text.EEPROM_writePage,"ax",%progbits
 202              		.align	2
 203              		.global	EEPROM_writePage
 204              		.thumb
 205              		.thumb_func
 206              		.type	EEPROM_writePage, %function
 207              	EEPROM_writePage:
 208              	.LFB5:
  71:25LC256.c     **** 
  72:25LC256.c     **** void EEPROM_writePage(uint16_t addr, uint8_t* data, uint8_t nBytes) {
 209              		.loc 1 72 0
 210              		.cfi_startproc
 211              		@ args = 0, pretend = 0, frame = 8
 212              		@ frame_needed = 1, uses_anonymous_args = 0
 213              	.LVL13:
ARM GAS  C:\Users\Susanna\AppData\Local\Temp\cckYCaUG.s 			page 6


 214 0000 2DE9F041 		push	{r4, r5, r6, r7, r8, lr}
 215              		.cfi_def_cfa_offset 24
 216              		.cfi_offset 4, -24
 217              		.cfi_offset 5, -20
 218              		.cfi_offset 6, -16
 219              		.cfi_offset 7, -12
 220              		.cfi_offset 8, -8
 221              		.cfi_offset 14, -4
 222 0004 82B0     		sub	sp, sp, #8
 223              		.cfi_def_cfa_offset 32
 224 0006 00AF     		add	r7, sp, #0
 225              		.cfi_def_cfa_register 7
 226 0008 0546     		mov	r5, r0
 227 000a 8846     		mov	r8, r1
 228 000c 1446     		mov	r4, r2
  73:25LC256.c     **** 	    
  74:25LC256.c     ****     /* Enable WRITE operations */
  75:25LC256.c     ****     EEPROM_writeEnable();
 229              		.loc 1 75 0
 230 000e FFF7FEFF 		bl	EEPROM_writeEnable
 231              	.LVL14:
  76:25LC256.c     **** 	
  77:25LC256.c     ****     CyDelayUs(1);
 232              		.loc 1 77 0
 233 0012 0120     		movs	r0, #1
 234 0014 FFF7FEFF 		bl	CyDelayUs
 235              	.LVL15:
  78:25LC256.c     ****     
  79:25LC256.c     **** 	/* Prepare the TX packet of size nBytes+3 
  80:25LC256.c     ****        [ Write Instruction - Address MSB - Address LSB - +++data+++ ]
  81:25LC256.c     ****     */
  82:25LC256.c     **** 	uint8_t dataTX[3+nBytes];
 236              		.loc 1 82 0
 237 0018 E61C     		adds	r6, r4, #3
 238              	.LVL16:
 239 001a 04F10A03 		add	r3, r4, #10
 240 001e 23F00703 		bic	r3, r3, #7
 241 0022 ADEB030D 		sub	sp, sp, r3
 242              	.LVL17:
  83:25LC256.c     ****     dataTX[0] = SPI_EEPROM_WRITE;
 243              		.loc 1 83 0
 244 0026 0223     		movs	r3, #2
 245 0028 8DF80030 		strb	r3, [sp]
  84:25LC256.c     ****     dataTX[1] = (addr & 0xFF00) >> 8;
 246              		.loc 1 84 0
 247 002c 2B0A     		lsrs	r3, r5, #8
 248 002e 8DF80130 		strb	r3, [sp, #1]
  85:25LC256.c     ****     dataTX[2] = addr & 0x00FF;
 249              		.loc 1 85 0
 250 0032 8DF80250 		strb	r5, [sp, #2]
  86:25LC256.c     ****     /* Copy the input data in the memory */
  87:25LC256.c     **** 	memcpy(&dataTX[3], data, nBytes);
 251              		.loc 1 87 0
 252 0036 2246     		mov	r2, r4
 253 0038 4146     		mov	r1, r8
 254 003a 0DF10300 		add	r0, sp, #3
 255 003e FFF7FEFF 		bl	memcpy
ARM GAS  C:\Users\Susanna\AppData\Local\Temp\cckYCaUG.s 			page 7


 256              	.LVL18:
  88:25LC256.c     **** 	
  89:25LC256.c     **** 	/* Nothing to RX: point to a dummy variable */
  90:25LC256.c     **** 	uint8_t temp = 0;
 257              		.loc 1 90 0
 258 0042 0023     		movs	r3, #0
 259 0044 07F10802 		add	r2, r7, #8
 260 0048 02F8013D 		strb	r3, [r2, #-1]!
  91:25LC256.c     **** 	
  92:25LC256.c     **** 	SPI_Interface_Multi_RW(dataTX, 3+nBytes, &temp, 0);
 261              		.loc 1 92 0
 262 004c F1B2     		uxtb	r1, r6
 263 004e 6846     		mov	r0, sp
 264 0050 FFF7FEFF 		bl	SPI_Interface_Multi_RW
 265              	.LVL19:
  93:25LC256.c     **** }
 266              		.loc 1 93 0
 267 0054 0837     		adds	r7, r7, #8
 268              		.cfi_def_cfa_offset 24
 269 0056 BD46     		mov	sp, r7
 270              		.cfi_def_cfa_register 13
 271              	.LVL20:
 272              		@ sp needed
 273 0058 BDE8F081 		pop	{r4, r5, r6, r7, r8, pc}
 274              		.cfi_endproc
 275              	.LFE5:
 276              		.size	EEPROM_writePage, .-EEPROM_writePage
 277              		.section	.text.EEPROM_waitForWriteComplete,"ax",%progbits
 278              		.align	2
 279              		.global	EEPROM_waitForWriteComplete
 280              		.thumb
 281              		.thumb_func
 282              		.type	EEPROM_waitForWriteComplete, %function
 283              	EEPROM_waitForWriteComplete:
 284              	.LFB6:
  94:25LC256.c     **** 
  95:25LC256.c     **** void EEPROM_waitForWriteComplete() {
 285              		.loc 1 95 0
 286              		.cfi_startproc
 287              		@ args = 0, pretend = 0, frame = 0
 288              		@ frame_needed = 0, uses_anonymous_args = 0
 289 0000 08B5     		push	{r3, lr}
 290              		.cfi_def_cfa_offset 8
 291              		.cfi_offset 3, -8
 292              		.cfi_offset 14, -4
 293              	.L14:
  96:25LC256.c     ****     
  97:25LC256.c     ****     while( EEPROM_readStatus() & SPI_EEPROM_WRITE_IN_PROGRESS );
 294              		.loc 1 97 0 discriminator 1
 295 0002 FFF7FEFF 		bl	EEPROM_readStatus
 296              	.LVL21:
 297 0006 10F0010F 		tst	r0, #1
 298 000a FAD1     		bne	.L14
  98:25LC256.c     ****     
  99:25LC256.c     **** }
 299              		.loc 1 99 0
 300 000c 08BD     		pop	{r3, pc}
ARM GAS  C:\Users\Susanna\AppData\Local\Temp\cckYCaUG.s 			page 8


 301              		.cfi_endproc
 302              	.LFE6:
 303              		.size	EEPROM_waitForWriteComplete, .-EEPROM_waitForWriteComplete
 304              		.comm	eeprom_Status,1,1
 305 000e 00BF     		.text
 306              	.Letext0:
 307              		.file 2 "c:\\program files (x86)\\cypress\\psoc creator\\4.3\\psoc creator\\import\\gnu\\arm\\5.4.
 308              		.file 3 "c:\\program files (x86)\\cypress\\psoc creator\\4.3\\psoc creator\\import\\gnu\\arm\\5.4.
 309              		.file 4 "SPI_Interface.h"
 310              		.file 5 "Generated_Source\\PSoC5/CyLib.h"