ARM GAS  C:\Users\Susanna\AppData\Local\Temp\ccO97qmq.s 			page 1


   1              		.syntax unified
   2              		.cpu cortex-m3
   3              		.fpu softvfp
   4              		.eabi_attribute 20, 1
   5              		.eabi_attribute 21, 1
   6              		.eabi_attribute 23, 3
   7              		.eabi_attribute 24, 1
   8              		.eabi_attribute 25, 1
   9              		.eabi_attribute 26, 1
  10              		.eabi_attribute 30, 1
  11              		.eabi_attribute 34, 1
  12              		.eabi_attribute 18, 4
  13              		.thumb
  14              		.syntax unified
  15              		.file	"InterruptRoutines.c"
  16              		.text
  17              	.Ltext0:
  18              		.cfi_sections	.debug_frame
  19              		.section	.text.Switch_ISR,"ax",%progbits
  20              		.align	2
  21              		.global	Switch_ISR
  22              		.thumb
  23              		.thumb_func
  24              		.type	Switch_ISR, %function
  25              	Switch_ISR:
  26              	.LFB63:
  27              		.file 1 "InterruptRoutines.c"
   1:InterruptRoutines.c **** /* ========================================
   2:InterruptRoutines.c ****  *
   3:InterruptRoutines.c ****  * ========================================
   4:InterruptRoutines.c **** */
   5:InterruptRoutines.c **** 
   6:InterruptRoutines.c **** #include "project.h"
   7:InterruptRoutines.c **** #include "InterruptRoutines.h"
   8:InterruptRoutines.c **** 
   9:InterruptRoutines.c **** /* ISR of the timer with clock frequency 1 Hz and period 20 sec */
  10:InterruptRoutines.c **** CY_ISR(Switch_ISR)
  11:InterruptRoutines.c **** {
  28              		.loc 1 11 0
  29              		.cfi_startproc
  30              		@ args = 0, pretend = 0, frame = 0
  31              		@ frame_needed = 0, uses_anonymous_args = 0
  32 0000 08B5     		push	{r3, lr}
  33              		.cfi_def_cfa_offset 8
  34              		.cfi_offset 3, -8
  35              		.cfi_offset 14, -4
  12:InterruptRoutines.c ****     Timer_SW_ReadStatusRegister();
  36              		.loc 1 12 0
  37 0002 FFF7FEFF 		bl	Timer_SW_ReadStatusRegister
  38              	.LVL0:
  13:InterruptRoutines.c ****     button_pressed=1;           // set the flag button_pressed if the button is pressed
  39              		.loc 1 13 0
  40 0006 0122     		movs	r2, #1
  41 0008 034B     		ldr	r3, .L3
  42 000a 1A60     		str	r2, [r3]
  14:InterruptRoutines.c ****     click_count++;              // count the number of clicks
  43              		.loc 1 14 0
ARM GAS  C:\Users\Susanna\AppData\Local\Temp\ccO97qmq.s 			page 2


  44 000c 034A     		ldr	r2, .L3+4
  45 000e 1368     		ldr	r3, [r2]
  46 0010 0133     		adds	r3, r3, #1
  47 0012 1360     		str	r3, [r2]
  48 0014 08BD     		pop	{r3, pc}
  49              	.L4:
  50 0016 00BF     		.align	2
  51              	.L3:
  52 0018 00000000 		.word	button_pressed
  53 001c 00000000 		.word	click_count
  54              		.cfi_endproc
  55              	.LFE63:
  56              		.size	Switch_ISR, .-Switch_ISR
  57              		.section	.text.TIME_ISR,"ax",%progbits
  58              		.align	2
  59              		.global	TIME_ISR
  60              		.thumb
  61              		.thumb_func
  62              		.type	TIME_ISR, %function
  63              	TIME_ISR:
  64              	.LFB64:
  15:InterruptRoutines.c ****     
  16:InterruptRoutines.c **** }
  17:InterruptRoutines.c **** 
  18:InterruptRoutines.c **** /* ISR of the timer with clock frequency 1 Hz and period 2 sec */
  19:InterruptRoutines.c **** CY_ISR(TIME_ISR)
  20:InterruptRoutines.c **** {
  65              		.loc 1 20 0
  66              		.cfi_startproc
  67              		@ args = 0, pretend = 0, frame = 0
  68              		@ frame_needed = 0, uses_anonymous_args = 0
  69 0000 08B5     		push	{r3, lr}
  70              		.cfi_def_cfa_offset 8
  71              		.cfi_offset 3, -8
  72              		.cfi_offset 14, -4
  21:InterruptRoutines.c ****     Timer_CountTime_ReadStatusRegister();
  73              		.loc 1 21 0
  74 0002 FFF7FEFF 		bl	Timer_CountTime_ReadStatusRegister
  75              	.LVL1:
  22:InterruptRoutines.c ****     time_passed=time_passed+2;  // increase time_passed every 2 seconds
  76              		.loc 1 22 0
  77 0006 034A     		ldr	r2, .L7
  78 0008 1388     		ldrh	r3, [r2]
  79 000a 9BB2     		uxth	r3, r3
  80 000c 0233     		adds	r3, r3, #2
  81 000e 9BB2     		uxth	r3, r3
  82 0010 1380     		strh	r3, [r2]	@ movhi
  83 0012 08BD     		pop	{r3, pc}
  84              	.L8:
  85              		.align	2
  86              	.L7:
  87 0014 00000000 		.word	time_passed
  88              		.cfi_endproc
  89              	.LFE64:
  90              		.size	TIME_ISR, .-TIME_ISR
  91              		.comm	time_passed,2,2
  92              		.comm	click_count,4,4
ARM GAS  C:\Users\Susanna\AppData\Local\Temp\ccO97qmq.s 			page 3


  93              		.comm	button_pressed,4,4
  94              		.text
  95              	.Letext0:
  96              		.file 2 "c:\\program files (x86)\\cypress\\psoc creator\\4.3\\psoc creator\\import\\gnu\\arm\\5.4.
  97              		.file 3 "c:\\program files (x86)\\cypress\\psoc creator\\4.3\\psoc creator\\import\\gnu\\arm\\5.4.
  98              		.file 4 "Generated_Source\\PSoC5/core_cm3.h"
  99              		.file 5 "InterruptRoutines.h"
 100              		.file 6 "Generated_Source\\PSoC5/Timer_SW.h"
 101              		.file 7 "Generated_Source\\PSoC5/Timer_CountTime.h"