ARM GAS  C:\Users\Susanna\AppData\Local\Temp\cc6TBbTX.s 			page 1


   1              		.syntax unified
   2              		.cpu cortex-m3
   3              		.fpu softvfp
   4              		.eabi_attribute 20, 1
   5              		.eabi_attribute 21, 1
   6              		.eabi_attribute 23, 3
   7              		.eabi_attribute 24, 1
   8              		.eabi_attribute 25, 1
   9              		.eabi_attribute 26, 1
  10              		.eabi_attribute 30, 1
  11              		.eabi_attribute 34, 1
  12              		.eabi_attribute 18, 4
  13              		.thumb
  14              		.syntax unified
  15              		.file	"RGBLedDriver.c"
  16              		.text
  17              	.Ltext0:
  18              		.cfi_sections	.debug_frame
  19              		.section	.text.RGBLed_Start,"ax",%progbits
  20              		.align	2
  21              		.global	RGBLed_Start
  22              		.thumb
  23              		.thumb_func
  24              		.type	RGBLed_Start, %function
  25              	RGBLed_Start:
  26              	.LFB63:
  27              		.file 1 "RGBLedDriver.c"
   1:RGBLedDriver.c **** /* ========================================
   2:RGBLedDriver.c ****  * Source code to implement the different
   3:RGBLedDriver.c ****  * blinking frequencies of the RGB Led 
   4:RGBLedDriver.c ****  * in relation to the current value of
   5:RGBLedDriver.c ****  * the acceleration data acquired.
   6:RGBLedDriver.c ****  *
   7:RGBLedDriver.c ****  * ========================================
   8:RGBLedDriver.c **** */
   9:RGBLedDriver.c **** #include  "RGBLedDriver.h"
  10:RGBLedDriver.c **** #include  "project.h"
  11:RGBLedDriver.c **** #include  "SettingParameter.h"
  12:RGBLedDriver.c **** 
  13:RGBLedDriver.c **** #define G 1000     // gravitational acceleratiion in mg
  14:RGBLedDriver.c **** #define LEVELS 3   // number of intervals used to subdivide the FSR after gravitational accel.
  15:RGBLedDriver.c **** #define X 0
  16:RGBLedDriver.c **** #define Y 1
  17:RGBLedDriver.c **** #define Z 2
  18:RGBLedDriver.c **** 
  19:RGBLedDriver.c **** uint16_t step;
  20:RGBLedDriver.c **** uint8_t direction;
  21:RGBLedDriver.c **** 
  22:RGBLedDriver.c **** 
  23:RGBLedDriver.c **** void RGBLed_Start(void)
  24:RGBLedDriver.c **** {
  28              		.loc 1 24 0
  29              		.cfi_startproc
  30              		@ args = 0, pretend = 0, frame = 0
  31              		@ frame_needed = 0, uses_anonymous_args = 0
  32 0000 08B5     		push	{r3, lr}
  33              		.cfi_def_cfa_offset 8
ARM GAS  C:\Users\Susanna\AppData\Local\Temp\cc6TBbTX.s 			page 2


  34              		.cfi_offset 3, -8
  35              		.cfi_offset 14, -4
  25:RGBLedDriver.c ****     PWM_RG_Start();
  36              		.loc 1 25 0
  37 0002 FFF7FEFF 		bl	PWM_RG_Start
  38              	.LVL0:
  26:RGBLedDriver.c ****     PWM_B_Start();
  39              		.loc 1 26 0
  40 0006 FFF7FEFF 		bl	PWM_B_Start
  41              	.LVL1:
  42 000a 08BD     		pop	{r3, pc}
  43              		.cfi_endproc
  44              	.LFE63:
  45              		.size	RGBLed_Start, .-RGBLed_Start
  46              		.section	.text.RGBLed_Stop,"ax",%progbits
  47              		.align	2
  48              		.global	RGBLed_Stop
  49              		.thumb
  50              		.thumb_func
  51              		.type	RGBLed_Stop, %function
  52              	RGBLed_Stop:
  53              	.LFB64:
  27:RGBLedDriver.c **** }
  28:RGBLedDriver.c **** 
  29:RGBLedDriver.c **** void RGBLed_Stop(void)
  30:RGBLedDriver.c **** {
  54              		.loc 1 30 0
  55              		.cfi_startproc
  56              		@ args = 0, pretend = 0, frame = 0
  57              		@ frame_needed = 0, uses_anonymous_args = 0
  58 0000 08B5     		push	{r3, lr}
  59              		.cfi_def_cfa_offset 8
  60              		.cfi_offset 3, -8
  61              		.cfi_offset 14, -4
  31:RGBLedDriver.c ****     PWM_RG_Stop();
  62              		.loc 1 31 0
  63 0002 FFF7FEFF 		bl	PWM_RG_Stop
  64              	.LVL2:
  32:RGBLedDriver.c ****     PWM_B_Stop();
  65              		.loc 1 32 0
  66 0006 FFF7FEFF 		bl	PWM_B_Stop
  67              	.LVL3:
  68 000a 08BD     		pop	{r3, pc}
  69              		.cfi_endproc
  70              	.LFE64:
  71              		.size	RGBLed_Stop, .-RGBLed_Stop
  72              		.section	.text.set_PWM,"ax",%progbits
  73              		.align	2
  74              		.global	set_PWM
  75              		.thumb
  76              		.thumb_func
  77              		.type	set_PWM, %function
  78              	set_PWM:
  79              	.LFB65:
  33:RGBLedDriver.c **** }
  34:RGBLedDriver.c **** 
  35:RGBLedDriver.c **** 
ARM GAS  C:\Users\Susanna\AppData\Local\Temp\cc6TBbTX.s 			page 3


  36:RGBLedDriver.c **** 
  37:RGBLedDriver.c **** void set_PWM(int16_t X_Out,int16_t Y_Out,int16_t Z_Out)
  38:RGBLedDriver.c **** {
  80              		.loc 1 38 0
  81              		.cfi_startproc
  82              		@ args = 0, pretend = 0, frame = 0
  83              		@ frame_needed = 0, uses_anonymous_args = 0
  84              	.LVL4:
  85 0000 70B5     		push	{r4, r5, r6, lr}
  86              		.cfi_def_cfa_offset 16
  87              		.cfi_offset 4, -16
  88              		.cfi_offset 5, -12
  89              		.cfi_offset 6, -8
  90              		.cfi_offset 14, -4
  91 0002 0446     		mov	r4, r0
  92 0004 0D46     		mov	r5, r1
  93 0006 1646     		mov	r6, r2
  39:RGBLedDriver.c ****     /* Calculate the interval width in order to divide the fullscale range 
  40:RGBLedDriver.c ****     (after the g value) into 3 intervals */
  41:RGBLedDriver.c ****     step=(fullscale_range-(G+confidence_interval))/LEVELS;
  94              		.loc 1 41 0
  95 0008 BC4B     		ldr	r3, .L23
  96 000a 1B88     		ldrh	r3, [r3]
  97 000c 1AB2     		sxth	r2, r3
  98              	.LVL5:
  99 000e BC49     		ldr	r1, .L23+4
 100              	.LVL6:
 101 0010 0B78     		ldrb	r3, [r1]	@ zero_extendqisi2
 102 0012 03F57A73 		add	r3, r3, #1000
 103 0016 D31A     		subs	r3, r2, r3
 104 0018 BA4A     		ldr	r2, .L23+8
 105 001a 82FB0302 		smull	r0, r2, r2, r3
 106              	.LVL7:
 107 001e A2EBE373 		sub	r3, r2, r3, asr #31
 108 0022 B94A     		ldr	r2, .L23+12
 109 0024 1380     		strh	r3, [r2]	@ movhi
  42:RGBLedDriver.c ****     
  43:RGBLedDriver.c ****     /* Verify which axis measures g acceleration (whithin a confidence interval) 
  44:RGBLedDriver.c ****     to set the direction of the device */
  45:RGBLedDriver.c ****     if((X_Out>=G-confidence_interval) && (X_Out<=G+confidence_interval))
 110              		.loc 1 45 0
 111 0026 0B78     		ldrb	r3, [r1]	@ zero_extendqisi2
 112 0028 C3F57A73 		rsb	r3, r3, #1000
 113 002c 9C42     		cmp	r4, r3
 114 002e 08DB     		blt	.L6
 115              		.loc 1 45 0 is_stmt 0 discriminator 1
 116 0030 0B78     		ldrb	r3, [r1]	@ zero_extendqisi2
 117 0032 03F57A73 		add	r3, r3, #1000
 118 0036 9C42     		cmp	r4, r3
 119 0038 03DC     		bgt	.L6
  46:RGBLedDriver.c ****     {
  47:RGBLedDriver.c ****         direction=X;   
 120              		.loc 1 47 0 is_stmt 1
 121 003a 0022     		movs	r2, #0
 122 003c B34B     		ldr	r3, .L23+16
 123 003e 1A70     		strb	r2, [r3]
 124 0040 1EE0     		b	.L7
ARM GAS  C:\Users\Susanna\AppData\Local\Temp\cc6TBbTX.s 			page 4


 125              	.L6:
  48:RGBLedDriver.c ****     }
  49:RGBLedDriver.c ****     
  50:RGBLedDriver.c ****     else if((Y_Out>=G-confidence_interval) && (Y_Out<=G+confidence_interval))
 126              		.loc 1 50 0
 127 0042 AF4B     		ldr	r3, .L23+4
 128 0044 1B78     		ldrb	r3, [r3]	@ zero_extendqisi2
 129 0046 C3F57A73 		rsb	r3, r3, #1000
 130 004a 9D42     		cmp	r5, r3
 131 004c 09DB     		blt	.L8
 132              		.loc 1 50 0 is_stmt 0 discriminator 1
 133 004e AC4B     		ldr	r3, .L23+4
 134 0050 1B78     		ldrb	r3, [r3]	@ zero_extendqisi2
 135 0052 03F57A73 		add	r3, r3, #1000
 136 0056 9D42     		cmp	r5, r3
 137 0058 03DC     		bgt	.L8
  51:RGBLedDriver.c ****     {
  52:RGBLedDriver.c ****         direction=Y;
 138              		.loc 1 52 0 is_stmt 1
 139 005a 0122     		movs	r2, #1
 140 005c AB4B     		ldr	r3, .L23+16
 141 005e 1A70     		strb	r2, [r3]
 142 0060 0EE0     		b	.L7
 143              	.L8:
  53:RGBLedDriver.c ****     }
  54:RGBLedDriver.c ****     
  55:RGBLedDriver.c ****     else if((Z_Out>=G-confidence_interval) && (Z_Out<=G+confidence_interval))
 144              		.loc 1 55 0
 145 0062 A74B     		ldr	r3, .L23+4
 146 0064 1B78     		ldrb	r3, [r3]	@ zero_extendqisi2
 147 0066 C3F57A73 		rsb	r3, r3, #1000
 148 006a 9E42     		cmp	r6, r3
 149 006c 08DB     		blt	.L7
 150              		.loc 1 55 0 is_stmt 0 discriminator 1
 151 006e A44B     		ldr	r3, .L23+4
 152 0070 1B78     		ldrb	r3, [r3]	@ zero_extendqisi2
 153 0072 03F57A73 		add	r3, r3, #1000
 154 0076 9E42     		cmp	r6, r3
 155 0078 02DC     		bgt	.L7
  56:RGBLedDriver.c ****     {
  57:RGBLedDriver.c ****         direction=Z;            
 156              		.loc 1 57 0 is_stmt 1
 157 007a 0222     		movs	r2, #2
 158 007c A34B     		ldr	r3, .L23+16
 159 007e 1A70     		strb	r2, [r3]
 160              	.L7:
  58:RGBLedDriver.c ****     }
  59:RGBLedDriver.c ****    
  60:RGBLedDriver.c ****     switch(direction)
 161              		.loc 1 60 0
 162 0080 A24B     		ldr	r3, .L23+16
 163 0082 1B78     		ldrb	r3, [r3]	@ zero_extendqisi2
 164 0084 012B     		cmp	r3, #1
 165 0086 7FD0     		beq	.L10
 166 0088 1BB1     		cbz	r3, .L11
 167 008a 022B     		cmp	r3, #2
 168 008c 00F0F780 		beq	.L12
ARM GAS  C:\Users\Susanna\AppData\Local\Temp\cc6TBbTX.s 			page 5


 169 0090 70BD     		pop	{r4, r5, r6, pc}
 170              	.L11:
  61:RGBLedDriver.c ****     {
  62:RGBLedDriver.c ****         case X:
  63:RGBLedDriver.c ****         /* Turn off green and blue channels */
  64:RGBLedDriver.c ****         RGBLed_Stop();
 171              		.loc 1 64 0
 172 0092 FFF7FEFF 		bl	RGBLed_Stop
 173              	.LVL8:
  65:RGBLedDriver.c ****         PWM_RG_WritePeriod(255);
 174              		.loc 1 65 0
 175 0096 FF20     		movs	r0, #255
 176 0098 FFF7FEFF 		bl	PWM_RG_WritePeriod
 177              	.LVL9:
  66:RGBLedDriver.c ****         PWM_RG_WriteCompare2(0);
 178              		.loc 1 66 0
 179 009c 0020     		movs	r0, #0
 180 009e FFF7FEFF 		bl	PWM_RG_WriteCompare2
 181              	.LVL10:
  67:RGBLedDriver.c ****         PWM_B_WritePeriod(255);
 182              		.loc 1 67 0
 183 00a2 FF20     		movs	r0, #255
 184 00a4 FFF7FEFF 		bl	PWM_B_WritePeriod
 185              	.LVL11:
  68:RGBLedDriver.c ****         PWM_B_WriteCompare(0);
 186              		.loc 1 68 0
 187 00a8 0020     		movs	r0, #0
 188 00aa FFF7FEFF 		bl	PWM_B_WriteCompare
 189              	.LVL12:
  69:RGBLedDriver.c ****         RGBLed_Start();
 190              		.loc 1 69 0
 191 00ae FFF7FEFF 		bl	RGBLed_Start
 192              	.LVL13:
  70:RGBLedDriver.c ****         if ((X_Out>=G-confidence_interval) && (X_Out<=G+confidence_interval))
 193              		.loc 1 70 0
 194 00b2 934B     		ldr	r3, .L23+4
 195 00b4 1B78     		ldrb	r3, [r3]	@ zero_extendqisi2
 196 00b6 C3F57A73 		rsb	r3, r3, #1000
 197 00ba 9C42     		cmp	r4, r3
 198 00bc 10DB     		blt	.L13
 199              		.loc 1 70 0 is_stmt 0 discriminator 1
 200 00be 904B     		ldr	r3, .L23+4
 201 00c0 1B78     		ldrb	r3, [r3]	@ zero_extendqisi2
 202 00c2 03F57A73 		add	r3, r3, #1000
 203 00c6 9C42     		cmp	r4, r3
 204 00c8 0ADC     		bgt	.L13
  71:RGBLedDriver.c ****         {
  72:RGBLedDriver.c ****           /* Steady red light if the device is still and x-axis measures gravitational accel. */
  73:RGBLedDriver.c ****           RGBLed_Stop();
 205              		.loc 1 73 0 is_stmt 1
 206 00ca FFF7FEFF 		bl	RGBLed_Stop
 207              	.LVL14:
  74:RGBLedDriver.c ****           PWM_RG_WritePeriod(255);
 208              		.loc 1 74 0
 209 00ce FF20     		movs	r0, #255
 210 00d0 FFF7FEFF 		bl	PWM_RG_WritePeriod
 211              	.LVL15:
ARM GAS  C:\Users\Susanna\AppData\Local\Temp\cc6TBbTX.s 			page 6


  75:RGBLedDriver.c ****           PWM_RG_WriteCompare1(255);
 212              		.loc 1 75 0
 213 00d4 FF20     		movs	r0, #255
 214 00d6 FFF7FEFF 		bl	PWM_RG_WriteCompare1
 215              	.LVL16:
  76:RGBLedDriver.c ****           RGBLed_Start();
 216              		.loc 1 76 0
 217 00da FFF7FEFF 		bl	RGBLed_Start
 218              	.LVL17:
 219 00de 70BD     		pop	{r4, r5, r6, pc}
 220              	.L13:
  77:RGBLedDriver.c ****         }
  78:RGBLedDriver.c ****         
  79:RGBLedDriver.c ****         else if((X_Out>G+confidence_interval) && (X_Out<=G+confidence_interval+step))
 221              		.loc 1 79 0
 222 00e0 874B     		ldr	r3, .L23+4
 223 00e2 1B78     		ldrb	r3, [r3]	@ zero_extendqisi2
 224 00e4 03F57A73 		add	r3, r3, #1000
 225 00e8 9C42     		cmp	r4, r3
 226 00ea 13DD     		ble	.L14
 227              		.loc 1 79 0 is_stmt 0 discriminator 1
 228 00ec 844B     		ldr	r3, .L23+4
 229 00ee 1B78     		ldrb	r3, [r3]	@ zero_extendqisi2
 230 00f0 03F57A73 		add	r3, r3, #1000
 231 00f4 844A     		ldr	r2, .L23+12
 232 00f6 1288     		ldrh	r2, [r2]
 233 00f8 1344     		add	r3, r3, r2
 234 00fa 9C42     		cmp	r4, r3
 235 00fc 0ADC     		bgt	.L14
  80:RGBLedDriver.c ****         {
  81:RGBLedDriver.c ****           /* Blinking of red light with a period of 0.5 sec */  
  82:RGBLedDriver.c ****           RGBLed_Stop();
 236              		.loc 1 82 0 is_stmt 1
 237 00fe FFF7FEFF 		bl	RGBLed_Stop
 238              	.LVL18:
  83:RGBLedDriver.c ****           PWM_RG_WritePeriod(65);
 239              		.loc 1 83 0
 240 0102 4120     		movs	r0, #65
 241 0104 FFF7FEFF 		bl	PWM_RG_WritePeriod
 242              	.LVL19:
  84:RGBLedDriver.c ****           PWM_RG_WriteCompare1(32);  
 243              		.loc 1 84 0
 244 0108 2020     		movs	r0, #32
 245 010a FFF7FEFF 		bl	PWM_RG_WriteCompare1
 246              	.LVL20:
  85:RGBLedDriver.c ****           RGBLed_Start();
 247              		.loc 1 85 0
 248 010e FFF7FEFF 		bl	RGBLed_Start
 249              	.LVL21:
 250 0112 70BD     		pop	{r4, r5, r6, pc}
 251              	.L14:
  86:RGBLedDriver.c ****         }   
  87:RGBLedDriver.c ****         else if ((X_Out>G+confidence_interval+step) && (X_Out<=G+confidence_interval+2*step))
 252              		.loc 1 87 0
 253 0114 7A4B     		ldr	r3, .L23+4
 254 0116 1A78     		ldrb	r2, [r3]	@ zero_extendqisi2
 255 0118 02F57A72 		add	r2, r2, #1000
ARM GAS  C:\Users\Susanna\AppData\Local\Temp\cc6TBbTX.s 			page 7


 256 011c 7A4B     		ldr	r3, .L23+12
 257 011e 1B88     		ldrh	r3, [r3]
 258 0120 1A44     		add	r2, r2, r3
 259 0122 9442     		cmp	r4, r2
 260 0124 12DD     		ble	.L15
 261              		.loc 1 87 0 is_stmt 0 discriminator 1
 262 0126 764A     		ldr	r2, .L23+4
 263 0128 1278     		ldrb	r2, [r2]	@ zero_extendqisi2
 264 012a 02F57A72 		add	r2, r2, #1000
 265 012e 02EB4302 		add	r2, r2, r3, lsl #1
 266 0132 9442     		cmp	r4, r2
 267 0134 0ADC     		bgt	.L15
  88:RGBLedDriver.c ****         {
  89:RGBLedDriver.c ****           /* Blinking of red light with a period of 0.25 sec */   
  90:RGBLedDriver.c ****           RGBLed_Stop();
 268              		.loc 1 90 0 is_stmt 1
 269 0136 FFF7FEFF 		bl	RGBLed_Stop
 270              	.LVL22:
  91:RGBLedDriver.c ****           PWM_RG_WritePeriod(32);
 271              		.loc 1 91 0
 272 013a 2020     		movs	r0, #32
 273 013c FFF7FEFF 		bl	PWM_RG_WritePeriod
 274              	.LVL23:
  92:RGBLedDriver.c ****           PWM_RG_WriteCompare1(16);  
 275              		.loc 1 92 0
 276 0140 1020     		movs	r0, #16
 277 0142 FFF7FEFF 		bl	PWM_RG_WriteCompare1
 278              	.LVL24:
  93:RGBLedDriver.c ****           RGBLed_Start();
 279              		.loc 1 93 0
 280 0146 FFF7FEFF 		bl	RGBLed_Start
 281              	.LVL25:
 282 014a 70BD     		pop	{r4, r5, r6, pc}
 283              	.L15:
  94:RGBLedDriver.c ****         }  
  95:RGBLedDriver.c ****         else if ((X_Out>G+confidence_interval+2*step) && (X_Out<=G+confidence_interval+3*step))
 284              		.loc 1 95 0
 285 014c 6C4A     		ldr	r2, .L23+4
 286 014e 1278     		ldrb	r2, [r2]	@ zero_extendqisi2
 287 0150 02F57A72 		add	r2, r2, #1000
 288 0154 02EB4302 		add	r2, r2, r3, lsl #1
 289 0158 9442     		cmp	r4, r2
 290 015a 40F31081 		ble	.L5
 291              		.loc 1 95 0 is_stmt 0 discriminator 1
 292 015e 684A     		ldr	r2, .L23+4
 293 0160 1278     		ldrb	r2, [r2]	@ zero_extendqisi2
 294 0162 02F57A72 		add	r2, r2, #1000
 295 0166 03EB4303 		add	r3, r3, r3, lsl #1
 296 016a 1344     		add	r3, r3, r2
 297 016c 9C42     		cmp	r4, r3
 298 016e 00F30681 		bgt	.L5
  96:RGBLedDriver.c ****         {
  97:RGBLedDriver.c ****           /* Blinking of red light with a period of 0.125 sec */   
  98:RGBLedDriver.c ****           RGBLed_Stop();
 299              		.loc 1 98 0 is_stmt 1
 300 0172 FFF7FEFF 		bl	RGBLed_Stop
 301              	.LVL26:
ARM GAS  C:\Users\Susanna\AppData\Local\Temp\cc6TBbTX.s 			page 8


  99:RGBLedDriver.c ****           PWM_RG_WritePeriod(16);
 302              		.loc 1 99 0
 303 0176 1020     		movs	r0, #16
 304 0178 FFF7FEFF 		bl	PWM_RG_WritePeriod
 305              	.LVL27:
 100:RGBLedDriver.c ****           PWM_RG_WriteCompare1(8);
 306              		.loc 1 100 0
 307 017c 0820     		movs	r0, #8
 308 017e FFF7FEFF 		bl	PWM_RG_WriteCompare1
 309              	.LVL28:
 101:RGBLedDriver.c ****           RGBLed_Start();
 310              		.loc 1 101 0
 311 0182 FFF7FEFF 		bl	RGBLed_Start
 312              	.LVL29:
 313 0186 70BD     		pop	{r4, r5, r6, pc}
 314              	.L10:
 102:RGBLedDriver.c ****         }  
 103:RGBLedDriver.c ****         break;
 104:RGBLedDriver.c ****         
 105:RGBLedDriver.c ****         case Y:
 106:RGBLedDriver.c ****         /* Turn off red and blue channels */
 107:RGBLedDriver.c ****         RGBLed_Stop();
 315              		.loc 1 107 0
 316 0188 FFF7FEFF 		bl	RGBLed_Stop
 317              	.LVL30:
 108:RGBLedDriver.c ****         PWM_RG_WritePeriod(255);
 318              		.loc 1 108 0
 319 018c FF20     		movs	r0, #255
 320 018e FFF7FEFF 		bl	PWM_RG_WritePeriod
 321              	.LVL31:
 109:RGBLedDriver.c ****         PWM_RG_WriteCompare1(0);
 322              		.loc 1 109 0
 323 0192 0020     		movs	r0, #0
 324 0194 FFF7FEFF 		bl	PWM_RG_WriteCompare1
 325              	.LVL32:
 110:RGBLedDriver.c ****         PWM_B_WritePeriod(255);
 326              		.loc 1 110 0
 327 0198 FF20     		movs	r0, #255
 328 019a FFF7FEFF 		bl	PWM_B_WritePeriod
 329              	.LVL33:
 111:RGBLedDriver.c ****         PWM_B_WriteCompare(0);
 330              		.loc 1 111 0
 331 019e 0020     		movs	r0, #0
 332 01a0 FFF7FEFF 		bl	PWM_B_WriteCompare
 333              	.LVL34:
 112:RGBLedDriver.c ****         RGBLed_Start();
 334              		.loc 1 112 0
 335 01a4 FFF7FEFF 		bl	RGBLed_Start
 336              	.LVL35:
 113:RGBLedDriver.c ****         if ((Y_Out>=G-confidence_interval) && (Y_Out<=G+confidence_interval))
 337              		.loc 1 113 0
 338 01a8 554B     		ldr	r3, .L23+4
 339 01aa 1B78     		ldrb	r3, [r3]	@ zero_extendqisi2
 340 01ac C3F57A73 		rsb	r3, r3, #1000
 341 01b0 9D42     		cmp	r5, r3
 342 01b2 10DB     		blt	.L16
 343              		.loc 1 113 0 is_stmt 0 discriminator 1
ARM GAS  C:\Users\Susanna\AppData\Local\Temp\cc6TBbTX.s 			page 9


 344 01b4 524B     		ldr	r3, .L23+4
 345 01b6 1B78     		ldrb	r3, [r3]	@ zero_extendqisi2
 346 01b8 03F57A73 		add	r3, r3, #1000
 347 01bc 9D42     		cmp	r5, r3
 348 01be 0ADC     		bgt	.L16
 114:RGBLedDriver.c ****         {
 115:RGBLedDriver.c ****           /* Steady green light if the device is still and y-axis measures gravitational accel. */ 
 116:RGBLedDriver.c ****           RGBLed_Stop();
 349              		.loc 1 116 0 is_stmt 1
 350 01c0 FFF7FEFF 		bl	RGBLed_Stop
 351              	.LVL36:
 117:RGBLedDriver.c ****           PWM_RG_WritePeriod(255);
 352              		.loc 1 117 0
 353 01c4 FF20     		movs	r0, #255
 354 01c6 FFF7FEFF 		bl	PWM_RG_WritePeriod
 355              	.LVL37:
 118:RGBLedDriver.c ****           PWM_RG_WriteCompare2(255);
 356              		.loc 1 118 0
 357 01ca FF20     		movs	r0, #255
 358 01cc FFF7FEFF 		bl	PWM_RG_WriteCompare2
 359              	.LVL38:
 119:RGBLedDriver.c ****           RGBLed_Start();
 360              		.loc 1 119 0
 361 01d0 FFF7FEFF 		bl	RGBLed_Start
 362              	.LVL39:
 363 01d4 70BD     		pop	{r4, r5, r6, pc}
 364              	.L16:
 120:RGBLedDriver.c ****         }
 121:RGBLedDriver.c ****         else if((Y_Out>G+confidence_interval) && (Y_Out<=G+confidence_interval+step))
 365              		.loc 1 121 0
 366 01d6 4A4B     		ldr	r3, .L23+4
 367 01d8 1B78     		ldrb	r3, [r3]	@ zero_extendqisi2
 368 01da 03F57A73 		add	r3, r3, #1000
 369 01de 9D42     		cmp	r5, r3
 370 01e0 13DD     		ble	.L17
 371              		.loc 1 121 0 is_stmt 0 discriminator 1
 372 01e2 474B     		ldr	r3, .L23+4
 373 01e4 1B78     		ldrb	r3, [r3]	@ zero_extendqisi2
 374 01e6 03F57A73 		add	r3, r3, #1000
 375 01ea 474A     		ldr	r2, .L23+12
 376 01ec 1288     		ldrh	r2, [r2]
 377 01ee 1344     		add	r3, r3, r2
 378 01f0 9D42     		cmp	r5, r3
 379 01f2 0ADC     		bgt	.L17
 122:RGBLedDriver.c ****         {
 123:RGBLedDriver.c ****           /* Blinking of green light with a period of 0.5 sec */  
 124:RGBLedDriver.c ****           RGBLed_Stop();
 380              		.loc 1 124 0 is_stmt 1
 381 01f4 FFF7FEFF 		bl	RGBLed_Stop
 382              	.LVL40:
 125:RGBLedDriver.c ****           PWM_RG_WritePeriod(65);
 383              		.loc 1 125 0
 384 01f8 4120     		movs	r0, #65
 385 01fa FFF7FEFF 		bl	PWM_RG_WritePeriod
 386              	.LVL41:
 126:RGBLedDriver.c ****           PWM_RG_WriteCompare2(32);  
 387              		.loc 1 126 0
ARM GAS  C:\Users\Susanna\AppData\Local\Temp\cc6TBbTX.s 			page 10


 388 01fe 2020     		movs	r0, #32
 389 0200 FFF7FEFF 		bl	PWM_RG_WriteCompare2
 390              	.LVL42:
 127:RGBLedDriver.c ****           RGBLed_Start();
 391              		.loc 1 127 0
 392 0204 FFF7FEFF 		bl	RGBLed_Start
 393              	.LVL43:
 394 0208 70BD     		pop	{r4, r5, r6, pc}
 395              	.L17:
 128:RGBLedDriver.c ****         }   
 129:RGBLedDriver.c ****         else if ((Y_Out>G+confidence_interval+step) && (Y_Out<=G+confidence_interval+2*step))
 396              		.loc 1 129 0
 397 020a 3D4B     		ldr	r3, .L23+4
 398 020c 1A78     		ldrb	r2, [r3]	@ zero_extendqisi2
 399 020e 02F57A72 		add	r2, r2, #1000
 400 0212 3D4B     		ldr	r3, .L23+12
 401 0214 1B88     		ldrh	r3, [r3]
 402 0216 1A44     		add	r2, r2, r3
 403 0218 9542     		cmp	r5, r2
 404 021a 12DD     		ble	.L18
 405              		.loc 1 129 0 is_stmt 0 discriminator 1
 406 021c 384A     		ldr	r2, .L23+4
 407 021e 1278     		ldrb	r2, [r2]	@ zero_extendqisi2
 408 0220 02F57A72 		add	r2, r2, #1000
 409 0224 02EB4302 		add	r2, r2, r3, lsl #1
 410 0228 9542     		cmp	r5, r2
 411 022a 0ADC     		bgt	.L18
 130:RGBLedDriver.c ****         {
 131:RGBLedDriver.c ****           /* Blinking of green light with a period of 0.25 sec */  
 132:RGBLedDriver.c ****           RGBLed_Stop();
 412              		.loc 1 132 0 is_stmt 1
 413 022c FFF7FEFF 		bl	RGBLed_Stop
 414              	.LVL44:
 133:RGBLedDriver.c ****           PWM_RG_WritePeriod(32);
 415              		.loc 1 133 0
 416 0230 2020     		movs	r0, #32
 417 0232 FFF7FEFF 		bl	PWM_RG_WritePeriod
 418              	.LVL45:
 134:RGBLedDriver.c ****           PWM_RG_WriteCompare2(16);  
 419              		.loc 1 134 0
 420 0236 1020     		movs	r0, #16
 421 0238 FFF7FEFF 		bl	PWM_RG_WriteCompare2
 422              	.LVL46:
 135:RGBLedDriver.c ****           RGBLed_Start();
 423              		.loc 1 135 0
 424 023c FFF7FEFF 		bl	RGBLed_Start
 425              	.LVL47:
 426 0240 70BD     		pop	{r4, r5, r6, pc}
 427              	.L18:
 136:RGBLedDriver.c ****         }  
 137:RGBLedDriver.c ****         else if ((Y_Out>G+confidence_interval+2*step) && (Y_Out<=G+confidence_interval+3*step))
 428              		.loc 1 137 0
 429 0242 2F4A     		ldr	r2, .L23+4
 430 0244 1278     		ldrb	r2, [r2]	@ zero_extendqisi2
 431 0246 02F57A72 		add	r2, r2, #1000
 432 024a 02EB4302 		add	r2, r2, r3, lsl #1
 433 024e 9542     		cmp	r5, r2
ARM GAS  C:\Users\Susanna\AppData\Local\Temp\cc6TBbTX.s 			page 11


 434 0250 40F39580 		ble	.L5
 435              		.loc 1 137 0 is_stmt 0 discriminator 1
 436 0254 2A4A     		ldr	r2, .L23+4
 437 0256 1278     		ldrb	r2, [r2]	@ zero_extendqisi2
 438 0258 02F57A72 		add	r2, r2, #1000
 439 025c 03EB4303 		add	r3, r3, r3, lsl #1
 440 0260 1344     		add	r3, r3, r2
 441 0262 9D42     		cmp	r5, r3
 442 0264 00F38B80 		bgt	.L5
 138:RGBLedDriver.c ****         {
 139:RGBLedDriver.c ****           /* Blinking of green light with a period of 0.125 sec */  
 140:RGBLedDriver.c ****           RGBLed_Stop();
 443              		.loc 1 140 0 is_stmt 1
 444 0268 FFF7FEFF 		bl	RGBLed_Stop
 445              	.LVL48:
 141:RGBLedDriver.c ****           PWM_RG_WritePeriod(16);
 446              		.loc 1 141 0
 447 026c 1020     		movs	r0, #16
 448 026e FFF7FEFF 		bl	PWM_RG_WritePeriod
 449              	.LVL49:
 142:RGBLedDriver.c ****           PWM_RG_WriteCompare2(8); 
 450              		.loc 1 142 0
 451 0272 0820     		movs	r0, #8
 452 0274 FFF7FEFF 		bl	PWM_RG_WriteCompare2
 453              	.LVL50:
 143:RGBLedDriver.c ****           RGBLed_Start();
 454              		.loc 1 143 0
 455 0278 FFF7FEFF 		bl	RGBLed_Start
 456              	.LVL51:
 457 027c 70BD     		pop	{r4, r5, r6, pc}
 458              	.L12:
 144:RGBLedDriver.c ****         }  
 145:RGBLedDriver.c ****         break;
 146:RGBLedDriver.c ****         
 147:RGBLedDriver.c ****         case Z:
 148:RGBLedDriver.c ****         /* Turn off red and green channels */
 149:RGBLedDriver.c ****         RGBLed_Stop();
 459              		.loc 1 149 0
 460 027e FFF7FEFF 		bl	RGBLed_Stop
 461              	.LVL52:
 150:RGBLedDriver.c ****         PWM_RG_WritePeriod(255);
 462              		.loc 1 150 0
 463 0282 FF20     		movs	r0, #255
 464 0284 FFF7FEFF 		bl	PWM_RG_WritePeriod
 465              	.LVL53:
 151:RGBLedDriver.c ****         PWM_RG_WriteCompare1(0);
 466              		.loc 1 151 0
 467 0288 0020     		movs	r0, #0
 468 028a FFF7FEFF 		bl	PWM_RG_WriteCompare1
 469              	.LVL54:
 152:RGBLedDriver.c ****         PWM_RG_WriteCompare2(0);
 470              		.loc 1 152 0
 471 028e 0020     		movs	r0, #0
 472 0290 FFF7FEFF 		bl	PWM_RG_WriteCompare2
 473              	.LVL55:
 153:RGBLedDriver.c ****         RGBLed_Start();
 474              		.loc 1 153 0
ARM GAS  C:\Users\Susanna\AppData\Local\Temp\cc6TBbTX.s 			page 12


 475 0294 FFF7FEFF 		bl	RGBLed_Start
 476              	.LVL56:
 154:RGBLedDriver.c ****         if ((Z_Out>=G-confidence_interval) && (Z_Out<=G+confidence_interval))
 477              		.loc 1 154 0
 478 0298 194B     		ldr	r3, .L23+4
 479 029a 1B78     		ldrb	r3, [r3]	@ zero_extendqisi2
 480 029c C3F57A73 		rsb	r3, r3, #1000
 481 02a0 9E42     		cmp	r6, r3
 482 02a2 10DB     		blt	.L19
 483              		.loc 1 154 0 is_stmt 0 discriminator 1
 484 02a4 164B     		ldr	r3, .L23+4
 485 02a6 1B78     		ldrb	r3, [r3]	@ zero_extendqisi2
 486 02a8 03F57A73 		add	r3, r3, #1000
 487 02ac 9E42     		cmp	r6, r3
 488 02ae 0ADC     		bgt	.L19
 155:RGBLedDriver.c ****         {
 156:RGBLedDriver.c ****           /* Steady blue light if the device is still and z-axis measures gravitational accel. */  
 157:RGBLedDriver.c ****           RGBLed_Stop();
 489              		.loc 1 157 0 is_stmt 1
 490 02b0 FFF7FEFF 		bl	RGBLed_Stop
 491              	.LVL57:
 158:RGBLedDriver.c ****           PWM_B_WritePeriod(255);
 492              		.loc 1 158 0
 493 02b4 FF20     		movs	r0, #255
 494 02b6 FFF7FEFF 		bl	PWM_B_WritePeriod
 495              	.LVL58:
 159:RGBLedDriver.c ****           PWM_B_WriteCompare(255);
 496              		.loc 1 159 0
 497 02ba FF20     		movs	r0, #255
 498 02bc FFF7FEFF 		bl	PWM_B_WriteCompare
 499              	.LVL59:
 160:RGBLedDriver.c ****           RGBLed_Start();
 500              		.loc 1 160 0
 501 02c0 FFF7FEFF 		bl	RGBLed_Start
 502              	.LVL60:
 503 02c4 70BD     		pop	{r4, r5, r6, pc}
 504              	.L19:
 161:RGBLedDriver.c ****         }
 162:RGBLedDriver.c ****         else if((Z_Out>G+confidence_interval) && (Z_Out<=G+confidence_interval+step))
 505              		.loc 1 162 0
 506 02c6 0E4B     		ldr	r3, .L23+4
 507 02c8 1B78     		ldrb	r3, [r3]	@ zero_extendqisi2
 508 02ca 03F57A73 		add	r3, r3, #1000
 509 02ce 9E42     		cmp	r6, r3
 510 02d0 1EDD     		ble	.L20
 511              		.loc 1 162 0 is_stmt 0 discriminator 1
 512 02d2 0B4B     		ldr	r3, .L23+4
 513 02d4 1B78     		ldrb	r3, [r3]	@ zero_extendqisi2
 514 02d6 03F57A73 		add	r3, r3, #1000
 515 02da 0B4A     		ldr	r2, .L23+12
 516 02dc 1288     		ldrh	r2, [r2]
 517 02de 1344     		add	r3, r3, r2
 518 02e0 9E42     		cmp	r6, r3
 519 02e2 15DC     		bgt	.L20
 163:RGBLedDriver.c ****         {
 164:RGBLedDriver.c ****           /* Blinking of blue light with a period of 0.5 sec */
 165:RGBLedDriver.c ****           RGBLed_Stop();
ARM GAS  C:\Users\Susanna\AppData\Local\Temp\cc6TBbTX.s 			page 13


 520              		.loc 1 165 0 is_stmt 1
 521 02e4 FFF7FEFF 		bl	RGBLed_Stop
 522              	.LVL61:
 166:RGBLedDriver.c ****           PWM_B_WritePeriod(65);
 523              		.loc 1 166 0
 524 02e8 4120     		movs	r0, #65
 525 02ea FFF7FEFF 		bl	PWM_B_WritePeriod
 526              	.LVL62:
 167:RGBLedDriver.c ****           PWM_B_WriteCompare(32); 
 527              		.loc 1 167 0
 528 02ee 2020     		movs	r0, #32
 529 02f0 FFF7FEFF 		bl	PWM_B_WriteCompare
 530              	.LVL63:
 168:RGBLedDriver.c ****           RGBLed_Start();
 531              		.loc 1 168 0
 532 02f4 FFF7FEFF 		bl	RGBLed_Start
 533              	.LVL64:
 534 02f8 70BD     		pop	{r4, r5, r6, pc}
 535              	.L24:
 536 02fa 00BF     		.align	2
 537              	.L23:
 538 02fc 00000000 		.word	fullscale_range
 539 0300 00000000 		.word	confidence_interval
 540 0304 56555555 		.word	1431655766
 541 0308 00000000 		.word	step
 542 030c 00000000 		.word	direction
 543              	.L20:
 169:RGBLedDriver.c ****         }   
 170:RGBLedDriver.c ****         else if ((Z_Out>G+confidence_interval+step) && (Z_Out<=G+confidence_interval+2*step))
 544              		.loc 1 170 0
 545 0310 1B4B     		ldr	r3, .L25
 546 0312 1A78     		ldrb	r2, [r3]	@ zero_extendqisi2
 547 0314 02F57A72 		add	r2, r2, #1000
 548 0318 1A4B     		ldr	r3, .L25+4
 549 031a 1B88     		ldrh	r3, [r3]
 550 031c 1A44     		add	r2, r2, r3
 551 031e 9642     		cmp	r6, r2
 552 0320 12DD     		ble	.L21
 553              		.loc 1 170 0 is_stmt 0 discriminator 1
 554 0322 174A     		ldr	r2, .L25
 555 0324 1278     		ldrb	r2, [r2]	@ zero_extendqisi2
 556 0326 02F57A72 		add	r2, r2, #1000
 557 032a 02EB4302 		add	r2, r2, r3, lsl #1
 558 032e 9642     		cmp	r6, r2
 559 0330 0ADC     		bgt	.L21
 171:RGBLedDriver.c ****         {
 172:RGBLedDriver.c ****           /* Blinking of blue light with a period of 0.25 sec */  
 173:RGBLedDriver.c ****           RGBLed_Stop();
 560              		.loc 1 173 0 is_stmt 1
 561 0332 FFF7FEFF 		bl	RGBLed_Stop
 562              	.LVL65:
 174:RGBLedDriver.c ****           PWM_B_WritePeriod(32);
 563              		.loc 1 174 0
 564 0336 2020     		movs	r0, #32
 565 0338 FFF7FEFF 		bl	PWM_B_WritePeriod
 566              	.LVL66:
 175:RGBLedDriver.c ****           PWM_B_WriteCompare(16);
ARM GAS  C:\Users\Susanna\AppData\Local\Temp\cc6TBbTX.s 			page 14


 567              		.loc 1 175 0
 568 033c 1020     		movs	r0, #16
 569 033e FFF7FEFF 		bl	PWM_B_WriteCompare
 570              	.LVL67:
 176:RGBLedDriver.c ****           RGBLed_Start();
 571              		.loc 1 176 0
 572 0342 FFF7FEFF 		bl	RGBLed_Start
 573              	.LVL68:
 574 0346 70BD     		pop	{r4, r5, r6, pc}
 575              	.L21:
 177:RGBLedDriver.c ****         }  
 178:RGBLedDriver.c ****         else if ((Z_Out>G+confidence_interval+2*step) && (Z_Out<=G+confidence_interval+3*step))
 576              		.loc 1 178 0
 577 0348 0D4A     		ldr	r2, .L25
 578 034a 1278     		ldrb	r2, [r2]	@ zero_extendqisi2
 579 034c 02F57A72 		add	r2, r2, #1000
 580 0350 02EB4302 		add	r2, r2, r3, lsl #1
 581 0354 9642     		cmp	r6, r2
 582 0356 12DD     		ble	.L5
 583              		.loc 1 178 0 is_stmt 0 discriminator 1
 584 0358 094A     		ldr	r2, .L25
 585 035a 1278     		ldrb	r2, [r2]	@ zero_extendqisi2
 586 035c 02F57A72 		add	r2, r2, #1000
 587 0360 03EB4303 		add	r3, r3, r3, lsl #1
 588 0364 1344     		add	r3, r3, r2
 589 0366 9E42     		cmp	r6, r3
 590 0368 09DC     		bgt	.L5
 179:RGBLedDriver.c ****         {
 180:RGBLedDriver.c ****           /* Blinking of blue light with a period of 0.125 sec */  
 181:RGBLedDriver.c ****           RGBLed_Stop();
 591              		.loc 1 181 0 is_stmt 1
 592 036a FFF7FEFF 		bl	RGBLed_Stop
 593              	.LVL69:
 182:RGBLedDriver.c ****           PWM_B_WritePeriod(16);
 594              		.loc 1 182 0
 595 036e 1020     		movs	r0, #16
 596 0370 FFF7FEFF 		bl	PWM_B_WritePeriod
 597              	.LVL70:
 183:RGBLedDriver.c ****           PWM_B_WriteCompare(8);  
 598              		.loc 1 183 0
 599 0374 0820     		movs	r0, #8
 600 0376 FFF7FEFF 		bl	PWM_B_WriteCompare
 601              	.LVL71:
 184:RGBLedDriver.c ****           RGBLed_Start();
 602              		.loc 1 184 0
 603 037a FFF7FEFF 		bl	RGBLed_Start
 604              	.LVL72:
 605              	.L5:
 606 037e 70BD     		pop	{r4, r5, r6, pc}
 607              	.L26:
 608              		.align	2
 609              	.L25:
 610 0380 00000000 		.word	confidence_interval
 611 0384 00000000 		.word	step
 612              		.cfi_endproc
 613              	.LFE65:
 614              		.size	set_PWM, .-set_PWM
ARM GAS  C:\Users\Susanna\AppData\Local\Temp\cc6TBbTX.s 			page 15


 615              		.comm	direction,1,1
 616              		.comm	step,2,2
 617              		.comm	Parameters,1,1
 618              		.comm	confidence_interval,1,1
 619              		.comm	sensitivity,1,1
 620              		.comm	fullscale_range,2,2
 621              		.text
 622              	.Letext0:
 623              		.file 2 "c:\\program files (x86)\\cypress\\psoc creator\\4.3\\psoc creator\\import\\gnu\\arm\\5.4.
 624              		.file 3 "c:\\program files (x86)\\cypress\\psoc creator\\4.3\\psoc creator\\import\\gnu\\arm\\5.4.
 625              		.file 4 "Generated_Source\\PSoC5/cytypes.h"
 626              		.file 5 "Generated_Source\\PSoC5/core_cm3.h"
 627              		.file 6 "SettingParameter.h"
 628              		.file 7 "Generated_Source\\PSoC5/PWM_RG.h"
 629              		.file 8 "Generated_Source\\PSoC5/PWM_B.h"