ARM GAS  C:\Users\Susanna\AppData\Local\Temp\ccTg3hCl.s 			page 1


   1              		.syntax unified
   2              		.cpu cortex-m3
   3              		.fpu softvfp
   4              		.eabi_attribute 20, 1
   5              		.eabi_attribute 21, 1
   6              		.eabi_attribute 23, 3
   7              		.eabi_attribute 24, 1
   8              		.eabi_attribute 25, 1
   9              		.eabi_attribute 26, 1
  10              		.eabi_attribute 30, 1
  11              		.eabi_attribute 34, 1
  12              		.eabi_attribute 18, 4
  13              		.thumb
  14              		.syntax unified
  15              		.file	"main.c"
  16              		.text
  17              	.Ltext0:
  18              		.cfi_sections	.debug_frame
  19              		.section	.text.main,"ax",%progbits
  20              		.align	2
  21              		.global	main
  22              		.thumb
  23              		.thumb_func
  24              		.type	main, %function
  25              	main:
  26              	.LFB64:
  27              		.file 1 "main.c"
   1:main.c        **** /* ========================================
   2:main.c        ****  * \file main.c
   3:main.c        ****  *
   4:main.c        ****  *
   5:main.c        ****  * ========================================
   6:main.c        **** */
   7:main.c        **** 
   8:main.c        **** // Include header files
   9:main.c        **** #include "I2C_Interface.h"
  10:main.c        **** #include "project.h"
  11:main.c        **** #include "stdio.h"
  12:main.c        **** #include "RGBLedDriver.h"
  13:main.c        **** #include "InterruptRoutines.h"
  14:main.c        **** #include "SW_State.h"
  15:main.c        **** #include "stdlib.h"
  16:main.c        **** #include <string.h>
  17:main.c        **** #include "25LC256.h"
  18:main.c        **** #include  "SettingParameter.h"
  19:main.c        **** 
  20:main.c        **** /* -------------------------------------------------
  21:main.c        ****   BRIEF MACROS FOR LIS3DH REGISTERS CONFIGURATION
  22:main.c        ****   ------------------------------------------------ */
  23:main.c        **** //Brief slave device address
  24:main.c        **** #define LIS3DH_DEVICE_ADDRESS 0x18
  25:main.c        **** 
  26:main.c        **** //Brief WHO AM I register address
  27:main.c        **** #define LIS3DH_WHO_AM_I_REG_ADDR 0x0F
  28:main.c        **** 
  29:main.c        **** //Brieg CONTROL REGISTER 1 address
  30:main.c        **** #define LIS3DH_CTRL_REG1 0x20
ARM GAS  C:\Users\Susanna\AppData\Local\Temp\ccTg3hCl.s 			page 2


  31:main.c        **** 
  32:main.c        **** /*Brief HEX value for CONTROL REGISTER 1: High resolution mode at 100 Hz
  33:main.c        **** CTRL_REG1[3]=LPen=0 (HR mode);
  34:main.c        **** CTRL_REG1[7:4]=ODR[3:0]=0101 (100 Hz)*/
  35:main.c        **** #define LIS3DH_HR_MODE_100_HZ_CTRL_REG1 0x57
  36:main.c        **** 
  37:main.c        **** //Brieg CONTROL REGISTER 3 address
  38:main.c        **** #define LIS3DH_CTRL_REG3 0x22
  39:main.c        **** 
  40:main.c        **** /*Brief HEX value for CONTROL REGISTER 2: 
  41:main.c        **** CTRL_REG3[1]=I1_OVERRUN=1 (FIFO overrun interrupt on INT1 enabled); */
  42:main.c        **** #define LIS3DH_OVERRUN_INT_CTRL_REG3 0x02
  43:main.c        **** 
  44:main.c        **** //Brief CONTROL REGISTER 4 address
  45:main.c        **** #define LIS3DH_CTRL_REG4 0x23
  46:main.c        **** 
  47:main.c        **** /*Brief HEX value for CONTROL REGISTER 4: +- 2.0 g FSR
  48:main.c        **** CTRL_REG4[3]=1 (High resolution enabled)
  49:main.c        **** CTRL_REG4[5:4]=FS[1:0]=00 (2.0 g FSR) */
  50:main.c        **** #define LIS3DH_CTRL_REG4_2g 0x88
  51:main.c        **** 
  52:main.c        **** /*Brief HEX value for CONTROL REGISTER 4: +- 4.0 g FSR
  53:main.c        **** CTRL_REG4[3]=1 (High resolution enabled)
  54:main.c        **** CTRL_REG4[5:4]=FS[1:0]=01 (4.0 g FSR) */
  55:main.c        **** #define LIS3DH_CTRL_REG4_4g 0x98
  56:main.c        **** 
  57:main.c        **** /*Brief HEX value for CONTROL REGISTER 4: +- 8.0 g FSR
  58:main.c        **** CTRL_REG4[3]=1 (High resolution enabled)
  59:main.c        **** CTRL_REG4[5:4]=FS[1:0]=10 (8.0 g FSR) */
  60:main.c        **** #define LIS3DH_CTRL_REG4_8g 0xA8
  61:main.c        **** 
  62:main.c        **** /*Brief HEX value for CONTROL REGISTER 4: +- 16.0 g FSR
  63:main.c        **** CTRL_REG4[3]=1 (High resolution enabled)
  64:main.c        **** CTRL_REG4[5:4]=FS[1:0]=11 (16.0 g FSR) */
  65:main.c        **** #define LIS3DH_CTRL_REG4_16g 0xB8
  66:main.c        **** 
  67:main.c        **** //Brief CONTROL REGISTER 5 address
  68:main.c        **** #define LIS3DH_CTRL_REG5 0x24
  69:main.c        **** 
  70:main.c        **** /*Brief HEX value for CONTROL REGISTER 5:
  71:main.c        **** FIFO_EN=1 (enable FIFO buffer)*/
  72:main.c        **** #define LIS3DH_FIFO_ENABLED 0x40
  73:main.c        **** 
  74:main.c        **** //Brief FIFO CONTROL REGISTER address
  75:main.c        **** #define LIS3DH_FIFO_CTRL_REG 0x2E
  76:main.c        **** 
  77:main.c        **** /*Brief HEX value for FIFO CONTROL REGISTER:
  78:main.c        **** FM[1:0]=01 (FIFO mode)
  79:main.c        **** TR=1 (Triggering signal on INT2)*/
  80:main.c        **** #define LIS3DH_FIFO_MODE 0x40//0x60
  81:main.c        **** 
  82:main.c        **** /*Brief HEX value for FIFO CONTROL REGISTER:
  83:main.c        **** FM[1:0]=00 (BYPASS mode)
  84:main.c        **** TR=1 (Triggering signal on INT2)*/
  85:main.c        **** #define LIS3DH_BYPASS_MODE 0x00 //0x20
  86:main.c        **** 
  87:main.c        **** //Brief FIFO SRC REGISTER address
ARM GAS  C:\Users\Susanna\AppData\Local\Temp\ccTg3hCl.s 			page 3


  88:main.c        **** #define LIS3DH_FIFO_SRC_REG 0x2F
  89:main.c        **** 
  90:main.c        **** //Brief INT2 CONFIGURATION register address
  91:main.c        **** #define LIS3DH_INT2_CFG 0x34
  92:main.c        **** 
  93:main.c        **** /*Brief HEX value for IN2 CONFIGURATION register:
  94:main.c        **** ZHIE=YHIE=ZHIE=1 (Interrupt request on measured accel. value lower than preset
  95:main.c        **** threshold)
  96:main.c        **** */
  97:main.c        **** #define LIS3DH_INT2_HIGH_EVENT 0x2A
  98:main.c        **** 
  99:main.c        **** //Brief INT2 SRC register address
 100:main.c        **** #define LIS3DH_INT2_SRC 0x35
 101:main.c        **** 
 102:main.c        **** //Brief INT2 THRESHOLD register address
 103:main.c        **** #define LIS3DH_INT2_THS 0x36
 104:main.c        **** 
 105:main.c        **** /*Brief HEX value for INT2 THRESHOLD register:
 106:main.c        **** 	TO BE DEFINED 
 107:main.c        **** */
 108:main.c        **** #define LIS3DH_THRESHOLD_EVENTS 
 109:main.c        **** 
 110:main.c        **** //Brief INT2 DURATION register address
 111:main.c        **** #define LIS3DH_INT2_DURATION 0x37 
 112:main.c        **** 
 113:main.c        **** /*Brief HEX value for INT2 DURATION register:
 114:main.c        **** 	TO BE DEFINED
 115:main.c        **** */
 116:main.c        **** #define LIS3DH_DURATION_EVENT 
 117:main.c        **** 
 118:main.c        **** //Brief OUT_X_L register address (x-axis output LSB)
 119:main.c        **** #define LIS3DH_OUT_X_L 0x28
 120:main.c        **** 
 121:main.c        **** //Brief OUT_Y_L register address (y-axis output LSB)
 122:main.c        **** #define LIS3DH_OUT_Y_L 0x2A
 123:main.c        **** 
 124:main.c        **** //Brief OUT_Z_L register address (z-axis output LSB)
 125:main.c        **** #define LIS3DH_OUT_Z_L 0x2C
 126:main.c        **** 
 127:main.c        **** 
 128:main.c        **** 
 129:main.c        **** int main(void)
 130:main.c        **** {
  28              		.loc 1 130 0
  29              		.cfi_startproc
  30              		@ args = 0, pretend = 0, frame = 360
  31              		@ frame_needed = 0, uses_anonymous_args = 0
  32 0000 2DE9F043 		push	{r4, r5, r6, r7, r8, r9, lr}
  33              		.cfi_def_cfa_offset 28
  34              		.cfi_offset 4, -28
  35              		.cfi_offset 5, -24
  36              		.cfi_offset 6, -20
  37              		.cfi_offset 7, -16
  38              		.cfi_offset 8, -12
  39              		.cfi_offset 9, -8
  40              		.cfi_offset 14, -4
  41 0004 DFB0     		sub	sp, sp, #380
ARM GAS  C:\Users\Susanna\AppData\Local\Temp\ccTg3hCl.s 			page 4


  42              		.cfi_def_cfa_offset 408
 131:main.c        ****     CyGlobalIntEnable; 
  43              		.loc 1 131 0
  44              		.syntax unified
  45              	@ 131 "main.c" 1
  46 0006 62B6     		CPSIE   i
  47              	@ 0 "" 2
 132:main.c        ****     
 133:main.c        ****     /* -------------------------------------
 134:main.c        **** 	           INITIALIZATION
 135:main.c        **** 	---------------------------------------- */
 136:main.c        ****     
 137:main.c        ****     I2C_Peripheral_Start();
  48              		.loc 1 137 0
  49              		.thumb
  50              		.syntax unified
  51 0008 FFF7FEFF 		bl	I2C_Peripheral_Start
  52              	.LVL0:
 138:main.c        ****     UART_Start();
  53              		.loc 1 138 0
  54 000c FFF7FEFF 		bl	UART_Start
  55              	.LVL1:
 139:main.c        ****     RGBLed_Start();
  56              		.loc 1 139 0
  57 0010 FFF7FEFF 		bl	RGBLed_Start
  58              	.LVL2:
 140:main.c        ****     PWM_ONBOARD_Start();
  59              		.loc 1 140 0
  60 0014 FFF7FEFF 		bl	PWM_ONBOARD_Start
  61              	.LVL3:
 141:main.c        ****     ISR_SW_StartEx(Switch_ISR);
  62              		.loc 1 141 0
  63 0018 B048     		ldr	r0, .L37
  64 001a FFF7FEFF 		bl	ISR_SW_StartEx
  65              	.LVL4:
 142:main.c        ****     Timer_SW_Start();
  66              		.loc 1 142 0
  67 001e FFF7FEFF 		bl	Timer_SW_Start
  68              	.LVL5:
 143:main.c        ****     SPIM_Start();
  69              		.loc 1 143 0
  70 0022 FFF7FEFF 		bl	SPIM_Start
  71              	.LVL6:
 144:main.c        ****     ADC_DelSig_Start();
  72              		.loc 1 144 0
  73 0026 FFF7FEFF 		bl	ADC_DelSig_Start
  74              	.LVL7:
 145:main.c        ****     
 146:main.c        **** 
 147:main.c        ****     button_pressed  = 0;
  75              		.loc 1 147 0
  76 002a 0023     		movs	r3, #0
  77 002c AC4A     		ldr	r2, .L37+4
  78 002e 1360     		str	r3, [r2]
 148:main.c        ****     click_count=0;
  79              		.loc 1 148 0
  80 0030 AC4A     		ldr	r2, .L37+8
ARM GAS  C:\Users\Susanna\AppData\Local\Temp\ccTg3hCl.s 			page 5


  81 0032 1360     		str	r3, [r2]
 149:main.c        ****     
 150:main.c        ****     //"The boot procedure is complete about 5 milliseconds after device power-up."
 151:main.c        ****     CyDelay(5); 
  82              		.loc 1 151 0
  83 0034 0520     		movs	r0, #5
  84 0036 FFF7FEFF 		bl	CyDelay
  85              	.LVL8:
 152:main.c        ****    
 153:main.c        ****     /* -----------------------------------------
 154:main.c        **** 		READING AND WRITING OF LIS3DH REGISTERS
 155:main.c        **** 		---------------------------------------- */
 156:main.c        ****     
 157:main.c        ****     char message[50];
 158:main.c        ****     char buffer_EEPROM[100];
 159:main.c        ****     
 160:main.c        ****     // CONTROL REGISTER 1
 161:main.c        ****     uint8_t ctrl_reg1; 
 162:main.c        ****     ErrorCode error = I2C_Peripheral_ReadRegister(LIS3DH_DEVICE_ADDRESS,
  86              		.loc 1 162 0
  87 003a 0DF1DF02 		add	r2, sp, #223
  88 003e 2021     		movs	r1, #32
  89 0040 1820     		movs	r0, #24
  90 0042 FFF7FEFF 		bl	I2C_Peripheral_ReadRegister
  91              	.LVL9:
 163:main.c        ****                                         LIS3DH_CTRL_REG1,
 164:main.c        ****                                         &ctrl_reg1);
 165:main.c        ****      if (error == NO_ERROR)
  92              		.loc 1 165 0
  93 0046 48B9     		cbnz	r0, .L2
 166:main.c        ****     {
 167:main.c        ****         sprintf(message, "CONTROL REGISTER 1: 0x%02X\r\n", ctrl_reg1);
  94              		.loc 1 167 0
  95 0048 9DF8DF20 		ldrb	r2, [sp, #223]	@ zero_extendqisi2
  96 004c A649     		ldr	r1, .L37+12
  97 004e 51A8     		add	r0, sp, #324
  98              	.LVL10:
  99 0050 FFF7FEFF 		bl	sprintf
 100              	.LVL11:
 168:main.c        ****         UART_PutString(message); 
 101              		.loc 1 168 0
 102 0054 51A8     		add	r0, sp, #324
 103 0056 FFF7FEFF 		bl	UART_PutString
 104              	.LVL12:
 105 005a 02E0     		b	.L3
 106              	.LVL13:
 107              	.L2:
 169:main.c        ****     }
 170:main.c        ****     else
 171:main.c        ****     {
 172:main.c        ****         UART_PutString("Error occurred during I2C comm to read control register 1\r\n");   
 108              		.loc 1 172 0
 109 005c A348     		ldr	r0, .L37+16
 110              	.LVL14:
 111 005e FFF7FEFF 		bl	UART_PutString
 112              	.LVL15:
 113              	.L3:
ARM GAS  C:\Users\Susanna\AppData\Local\Temp\ccTg3hCl.s 			page 6


 173:main.c        ****     }
 174:main.c        ****     
 175:main.c        **** 
 176:main.c        ****     if (ctrl_reg1 != LIS3DH_HR_MODE_100_HZ_CTRL_REG1)
 114              		.loc 1 176 0
 115 0062 9DF8DF30 		ldrb	r3, [sp, #223]	@ zero_extendqisi2
 116 0066 572B     		cmp	r3, #87
 117 0068 14D0     		beq	.L4
 177:main.c        ****     {
 178:main.c        ****         ctrl_reg1 = LIS3DH_HR_MODE_100_HZ_CTRL_REG1;
 118              		.loc 1 178 0
 119 006a 5722     		movs	r2, #87
 120 006c 8DF8DF20 		strb	r2, [sp, #223]
 179:main.c        ****         error = I2C_Peripheral_WriteRegister(LIS3DH_DEVICE_ADDRESS,
 121              		.loc 1 179 0
 122 0070 2021     		movs	r1, #32
 123 0072 1820     		movs	r0, #24
 124 0074 FFF7FEFF 		bl	I2C_Peripheral_WriteRegister
 125              	.LVL16:
 180:main.c        ****                                              LIS3DH_CTRL_REG1,
 181:main.c        ****                                              ctrl_reg1);  
 182:main.c        ****         
 183:main.c        ****         if (error == NO_ERROR)
 126              		.loc 1 183 0
 127 0078 48B9     		cbnz	r0, .L5
 184:main.c        ****         {
 185:main.c        ****             sprintf(message, "CONTROL REGISTER 1 successfully written as: 0x%02X\r\n", ctrl_reg1);
 128              		.loc 1 185 0
 129 007a 9DF8DF20 		ldrb	r2, [sp, #223]	@ zero_extendqisi2
 130 007e 9C49     		ldr	r1, .L37+20
 131 0080 51A8     		add	r0, sp, #324
 132              	.LVL17:
 133 0082 FFF7FEFF 		bl	sprintf
 134              	.LVL18:
 186:main.c        ****             UART_PutString(message); 
 135              		.loc 1 186 0
 136 0086 51A8     		add	r0, sp, #324
 137 0088 FFF7FEFF 		bl	UART_PutString
 138              	.LVL19:
 139 008c 02E0     		b	.L4
 140              	.LVL20:
 141              	.L5:
 187:main.c        ****         }
 188:main.c        ****         else
 189:main.c        ****         {
 190:main.c        ****             UART_PutString("Error occurred during I2C comm to set control register 1\r\n");   
 142              		.loc 1 190 0
 143 008e 9948     		ldr	r0, .L37+24
 144              	.LVL21:
 145 0090 FFF7FEFF 		bl	UART_PutString
 146              	.LVL22:
 147              	.L4:
 191:main.c        ****         }
 192:main.c        ****     }
 193:main.c        ****     
 194:main.c        ****     // CONTROL REGISTER 3
 195:main.c        ****     uint8_t ctrl_reg3; 
ARM GAS  C:\Users\Susanna\AppData\Local\Temp\ccTg3hCl.s 			page 7


 196:main.c        ****     error = I2C_Peripheral_ReadRegister(LIS3DH_DEVICE_ADDRESS,
 148              		.loc 1 196 0
 149 0094 0DF1DE02 		add	r2, sp, #222
 150 0098 2221     		movs	r1, #34
 151 009a 1820     		movs	r0, #24
 152 009c FFF7FEFF 		bl	I2C_Peripheral_ReadRegister
 153              	.LVL23:
 197:main.c        ****                                         LIS3DH_CTRL_REG3,
 198:main.c        ****                                         &ctrl_reg3);
 199:main.c        ****      if (error == NO_ERROR)
 154              		.loc 1 199 0
 155 00a0 48B9     		cbnz	r0, .L6
 200:main.c        ****     {
 201:main.c        ****         sprintf(message, "CONTROL REGISTER 3: 0x%02X\r\n", ctrl_reg3);
 156              		.loc 1 201 0
 157 00a2 9DF8DE20 		ldrb	r2, [sp, #222]	@ zero_extendqisi2
 158 00a6 9449     		ldr	r1, .L37+28
 159 00a8 51A8     		add	r0, sp, #324
 160              	.LVL24:
 161 00aa FFF7FEFF 		bl	sprintf
 162              	.LVL25:
 202:main.c        ****         UART_PutString(message); 
 163              		.loc 1 202 0
 164 00ae 51A8     		add	r0, sp, #324
 165 00b0 FFF7FEFF 		bl	UART_PutString
 166              	.LVL26:
 167 00b4 02E0     		b	.L7
 168              	.LVL27:
 169              	.L6:
 203:main.c        ****     }
 204:main.c        ****     else
 205:main.c        ****     {
 206:main.c        ****         UART_PutString("Error occurred during I2C comm to read control register 3\r\n");   
 170              		.loc 1 206 0
 171 00b6 9148     		ldr	r0, .L37+32
 172              	.LVL28:
 173 00b8 FFF7FEFF 		bl	UART_PutString
 174              	.LVL29:
 175              	.L7:
 207:main.c        ****     }
 208:main.c        ****     
 209:main.c        **** 
 210:main.c        ****     if (ctrl_reg3 != LIS3DH_OVERRUN_INT_CTRL_REG3)
 176              		.loc 1 210 0
 177 00bc 9DF8DE30 		ldrb	r3, [sp, #222]	@ zero_extendqisi2
 178 00c0 022B     		cmp	r3, #2
 179 00c2 14D0     		beq	.L8
 211:main.c        ****     {
 212:main.c        ****         ctrl_reg3 = LIS3DH_OVERRUN_INT_CTRL_REG3;
 180              		.loc 1 212 0
 181 00c4 0222     		movs	r2, #2
 182 00c6 8DF8DE20 		strb	r2, [sp, #222]
 213:main.c        ****         error = I2C_Peripheral_WriteRegister(LIS3DH_DEVICE_ADDRESS,
 183              		.loc 1 213 0
 184 00ca 2221     		movs	r1, #34
 185 00cc 1820     		movs	r0, #24
 186 00ce FFF7FEFF 		bl	I2C_Peripheral_WriteRegister
ARM GAS  C:\Users\Susanna\AppData\Local\Temp\ccTg3hCl.s 			page 8


 187              	.LVL30:
 214:main.c        ****                                              LIS3DH_CTRL_REG3,
 215:main.c        ****                                              ctrl_reg3);  
 216:main.c        ****         
 217:main.c        ****         if (error == NO_ERROR)
 188              		.loc 1 217 0
 189 00d2 48B9     		cbnz	r0, .L9
 218:main.c        ****         {
 219:main.c        ****             sprintf(message, "CONTROL REGISTER 3 successfully written as: 0x%02X\r\n", ctrl_reg3);
 190              		.loc 1 219 0
 191 00d4 9DF8DE20 		ldrb	r2, [sp, #222]	@ zero_extendqisi2
 192 00d8 8949     		ldr	r1, .L37+36
 193 00da 51A8     		add	r0, sp, #324
 194              	.LVL31:
 195 00dc FFF7FEFF 		bl	sprintf
 196              	.LVL32:
 220:main.c        ****             UART_PutString(message); 
 197              		.loc 1 220 0
 198 00e0 51A8     		add	r0, sp, #324
 199 00e2 FFF7FEFF 		bl	UART_PutString
 200              	.LVL33:
 201 00e6 02E0     		b	.L8
 202              	.LVL34:
 203              	.L9:
 221:main.c        ****         }
 222:main.c        ****         else
 223:main.c        ****         {
 224:main.c        ****             UART_PutString("Error occurred during I2C comm to set control register 3\r\n");   
 204              		.loc 1 224 0
 205 00e8 8648     		ldr	r0, .L37+40
 206              	.LVL35:
 207 00ea FFF7FEFF 		bl	UART_PutString
 208              	.LVL36:
 209              	.L8:
 225:main.c        ****         }
 226:main.c        ****     }
 227:main.c        ****    
 228:main.c        ****     //CONTROL REGISTER 4   
 229:main.c        ****     uint8_t ctrl_reg4;
 230:main.c        ****     error = I2C_Peripheral_ReadRegister(LIS3DH_DEVICE_ADDRESS,
 210              		.loc 1 230 0
 211 00ee 0DF1DD02 		add	r2, sp, #221
 212 00f2 2321     		movs	r1, #35
 213 00f4 1820     		movs	r0, #24
 214 00f6 FFF7FEFF 		bl	I2C_Peripheral_ReadRegister
 215              	.LVL37:
 231:main.c        ****                                         LIS3DH_CTRL_REG4,
 232:main.c        ****                                         &ctrl_reg4);
 233:main.c        ****      if (error == NO_ERROR)
 216              		.loc 1 233 0
 217 00fa 48B9     		cbnz	r0, .L10
 234:main.c        ****     {
 235:main.c        ****         sprintf(message, "CONTROL REGISTER 4: 0x%02X\r\n", ctrl_reg4);
 218              		.loc 1 235 0
 219 00fc 9DF8DD20 		ldrb	r2, [sp, #221]	@ zero_extendqisi2
 220 0100 8149     		ldr	r1, .L37+44
 221 0102 51A8     		add	r0, sp, #324
ARM GAS  C:\Users\Susanna\AppData\Local\Temp\ccTg3hCl.s 			page 9


 222              	.LVL38:
 223 0104 FFF7FEFF 		bl	sprintf
 224              	.LVL39:
 236:main.c        ****         UART_PutString(message); 
 225              		.loc 1 236 0
 226 0108 51A8     		add	r0, sp, #324
 227 010a FFF7FEFF 		bl	UART_PutString
 228              	.LVL40:
 229 010e 02E0     		b	.L11
 230              	.LVL41:
 231              	.L10:
 237:main.c        ****     }
 238:main.c        ****     else
 239:main.c        ****     {
 240:main.c        ****         UART_PutString("Error occurred during I2C comm to read control register 4\r\n");   
 232              		.loc 1 240 0
 233 0110 7E48     		ldr	r0, .L37+48
 234              	.LVL42:
 235 0112 FFF7FEFF 		bl	UART_PutString
 236              	.LVL43:
 237              	.L11:
 241:main.c        ****     }
 242:main.c        ****     
 243:main.c        ****    
 244:main.c        ****     if (ctrl_reg4 != LIS3DH_CTRL_REG4_2g)
 238              		.loc 1 244 0
 239 0116 9DF8DD30 		ldrb	r3, [sp, #221]	@ zero_extendqisi2
 240 011a 882B     		cmp	r3, #136
 241 011c 14D0     		beq	.L12
 245:main.c        ****     {
 246:main.c        ****         ctrl_reg4 = LIS3DH_CTRL_REG4_4g;
 242              		.loc 1 246 0
 243 011e 9822     		movs	r2, #152
 244 0120 8DF8DD20 		strb	r2, [sp, #221]
 247:main.c        ****         error = I2C_Peripheral_WriteRegister(LIS3DH_DEVICE_ADDRESS,
 245              		.loc 1 247 0
 246 0124 2321     		movs	r1, #35
 247 0126 1820     		movs	r0, #24
 248 0128 FFF7FEFF 		bl	I2C_Peripheral_WriteRegister
 249              	.LVL44:
 248:main.c        ****                                          LIS3DH_CTRL_REG4,
 249:main.c        ****                                          ctrl_reg4);
 250:main.c        ****         if (error == NO_ERROR)
 250              		.loc 1 250 0
 251 012c 48B9     		cbnz	r0, .L13
 251:main.c        ****         {
 252:main.c        ****             sprintf(message, "CONTROL REGISTER 4 successfully written as: 0x%02X\r\n", ctrl_reg4);
 252              		.loc 1 252 0
 253 012e 9DF8DD20 		ldrb	r2, [sp, #221]	@ zero_extendqisi2
 254 0132 7749     		ldr	r1, .L37+52
 255 0134 51A8     		add	r0, sp, #324
 256              	.LVL45:
 257 0136 FFF7FEFF 		bl	sprintf
 258              	.LVL46:
 253:main.c        ****             UART_PutString(message); 
 259              		.loc 1 253 0
 260 013a 51A8     		add	r0, sp, #324
ARM GAS  C:\Users\Susanna\AppData\Local\Temp\ccTg3hCl.s 			page 10


 261 013c FFF7FEFF 		bl	UART_PutString
 262              	.LVL47:
 263 0140 02E0     		b	.L12
 264              	.LVL48:
 265              	.L13:
 254:main.c        ****         }
 255:main.c        ****         else
 256:main.c        ****         {
 257:main.c        ****             UART_PutString("Error occurred during I2C comm to set control register 4\r\n");   
 266              		.loc 1 257 0
 267 0142 7448     		ldr	r0, .L37+56
 268              	.LVL49:
 269 0144 FFF7FEFF 		bl	UART_PutString
 270              	.LVL50:
 271              	.L12:
 258:main.c        ****         }
 259:main.c        ****     }
 260:main.c        ****     
 261:main.c        ****     //CONTROL REGISTER 5  
 262:main.c        ****     uint8_t ctrl_reg5;
 263:main.c        ****     error = I2C_Peripheral_ReadRegister(LIS3DH_DEVICE_ADDRESS,
 272              		.loc 1 263 0
 273 0148 37AA     		add	r2, sp, #220
 274 014a 2421     		movs	r1, #36
 275 014c 1820     		movs	r0, #24
 276 014e FFF7FEFF 		bl	I2C_Peripheral_ReadRegister
 277              	.LVL51:
 264:main.c        ****                                         LIS3DH_CTRL_REG5,
 265:main.c        ****                                         &ctrl_reg5); 
 266:main.c        ****      if (error == NO_ERROR)
 278              		.loc 1 266 0
 279 0152 48B9     		cbnz	r0, .L14
 267:main.c        ****     {
 268:main.c        ****         sprintf(message, "CONTROL REGISTER 5: 0x%02X\r\n", ctrl_reg5);
 280              		.loc 1 268 0
 281 0154 9DF8DC20 		ldrb	r2, [sp, #220]	@ zero_extendqisi2
 282 0158 6F49     		ldr	r1, .L37+60
 283 015a 51A8     		add	r0, sp, #324
 284              	.LVL52:
 285 015c FFF7FEFF 		bl	sprintf
 286              	.LVL53:
 269:main.c        ****         UART_PutString(message); 
 287              		.loc 1 269 0
 288 0160 51A8     		add	r0, sp, #324
 289 0162 FFF7FEFF 		bl	UART_PutString
 290              	.LVL54:
 291 0166 02E0     		b	.L15
 292              	.LVL55:
 293              	.L14:
 270:main.c        ****     }
 271:main.c        ****     else
 272:main.c        ****     {
 273:main.c        ****         UART_PutString("Error occurred during I2C comm to read control register 5\r\n");   
 294              		.loc 1 273 0
 295 0168 6C48     		ldr	r0, .L37+64
 296              	.LVL56:
 297 016a FFF7FEFF 		bl	UART_PutString
ARM GAS  C:\Users\Susanna\AppData\Local\Temp\ccTg3hCl.s 			page 11


 298              	.LVL57:
 299              	.L15:
 274:main.c        ****     }
 275:main.c        ****     
 276:main.c        ****     
 277:main.c        ****     if (ctrl_reg5 != LIS3DH_FIFO_ENABLED)
 300              		.loc 1 277 0
 301 016e 9DF8DC30 		ldrb	r3, [sp, #220]	@ zero_extendqisi2
 302 0172 402B     		cmp	r3, #64
 303 0174 14D0     		beq	.L16
 278:main.c        ****     {
 279:main.c        ****         ctrl_reg5 = LIS3DH_FIFO_ENABLED;
 304              		.loc 1 279 0
 305 0176 4022     		movs	r2, #64
 306 0178 8DF8DC20 		strb	r2, [sp, #220]
 280:main.c        ****         error = I2C_Peripheral_WriteRegister(LIS3DH_DEVICE_ADDRESS,
 307              		.loc 1 280 0
 308 017c 2421     		movs	r1, #36
 309 017e 1820     		movs	r0, #24
 310 0180 FFF7FEFF 		bl	I2C_Peripheral_WriteRegister
 311              	.LVL58:
 281:main.c        ****                                          LIS3DH_CTRL_REG5,
 282:main.c        ****                                          ctrl_reg5);
 283:main.c        ****         if (error == NO_ERROR)
 312              		.loc 1 283 0
 313 0184 48B9     		cbnz	r0, .L17
 284:main.c        ****         {
 285:main.c        ****             sprintf(message, "CONTROL REGISTER 5 successfully written as: 0x%02X\r\n", ctrl_reg5);
 314              		.loc 1 285 0
 315 0186 9DF8DC20 		ldrb	r2, [sp, #220]	@ zero_extendqisi2
 316 018a 6549     		ldr	r1, .L37+68
 317 018c 51A8     		add	r0, sp, #324
 318              	.LVL59:
 319 018e FFF7FEFF 		bl	sprintf
 320              	.LVL60:
 286:main.c        ****             UART_PutString(message); 
 321              		.loc 1 286 0
 322 0192 51A8     		add	r0, sp, #324
 323 0194 FFF7FEFF 		bl	UART_PutString
 324              	.LVL61:
 325 0198 02E0     		b	.L16
 326              	.LVL62:
 327              	.L17:
 287:main.c        ****         }
 288:main.c        ****         else
 289:main.c        ****         {
 290:main.c        ****             UART_PutString("Error occurred during I2C comm to set control register 5\r\n");   
 328              		.loc 1 290 0
 329 019a 6248     		ldr	r0, .L37+72
 330              	.LVL63:
 331 019c FFF7FEFF 		bl	UART_PutString
 332              	.LVL64:
 333              	.L16:
 291:main.c        ****         }
 292:main.c        ****     }
 293:main.c        ****     
 294:main.c        ****     //FIFO CONTROL REGISTER
ARM GAS  C:\Users\Susanna\AppData\Local\Temp\ccTg3hCl.s 			page 12


 295:main.c        ****     uint8_t fifo_ctrl_reg;
 296:main.c        ****     error = I2C_Peripheral_ReadRegister(LIS3DH_DEVICE_ADDRESS,
 334              		.loc 1 296 0
 335 01a0 0DF1DB02 		add	r2, sp, #219
 336 01a4 2E21     		movs	r1, #46
 337 01a6 1820     		movs	r0, #24
 338 01a8 FFF7FEFF 		bl	I2C_Peripheral_ReadRegister
 339              	.LVL65:
 297:main.c        ****                                         LIS3DH_FIFO_CTRL_REG,
 298:main.c        ****                                         &fifo_ctrl_reg); 
 299:main.c        ****      if (error == NO_ERROR)
 340              		.loc 1 299 0
 341 01ac 48B9     		cbnz	r0, .L18
 300:main.c        ****     {
 301:main.c        ****         sprintf(message, "FIFO CONTROL REGISTER: 0x%02X\r\n", fifo_ctrl_reg);
 342              		.loc 1 301 0
 343 01ae 9DF8DB20 		ldrb	r2, [sp, #219]	@ zero_extendqisi2
 344 01b2 5D49     		ldr	r1, .L37+76
 345 01b4 51A8     		add	r0, sp, #324
 346              	.LVL66:
 347 01b6 FFF7FEFF 		bl	sprintf
 348              	.LVL67:
 302:main.c        ****         UART_PutString(message); 
 349              		.loc 1 302 0
 350 01ba 51A8     		add	r0, sp, #324
 351 01bc FFF7FEFF 		bl	UART_PutString
 352              	.LVL68:
 353 01c0 02E0     		b	.L19
 354              	.LVL69:
 355              	.L18:
 303:main.c        ****     }
 304:main.c        ****     else
 305:main.c        ****     {
 306:main.c        ****         UART_PutString("Error occurred during I2C comm to read FIFO control register \r\n");   
 356              		.loc 1 306 0
 357 01c2 5A48     		ldr	r0, .L37+80
 358              	.LVL70:
 359 01c4 FFF7FEFF 		bl	UART_PutString
 360              	.LVL71:
 361              	.L19:
 307:main.c        ****     }
 308:main.c        ****     
 309:main.c        ****     
 310:main.c        ****     if (fifo_ctrl_reg != LIS3DH_FIFO_MODE)
 362              		.loc 1 310 0
 363 01c8 9DF8DB30 		ldrb	r3, [sp, #219]	@ zero_extendqisi2
 364 01cc 402B     		cmp	r3, #64
 365 01ce 14D0     		beq	.L20
 311:main.c        ****     {
 312:main.c        ****         fifo_ctrl_reg = LIS3DH_FIFO_MODE;
 366              		.loc 1 312 0
 367 01d0 4022     		movs	r2, #64
 368 01d2 8DF8DB20 		strb	r2, [sp, #219]
 313:main.c        ****         error = I2C_Peripheral_WriteRegister(LIS3DH_DEVICE_ADDRESS,
 369              		.loc 1 313 0
 370 01d6 2E21     		movs	r1, #46
 371 01d8 1820     		movs	r0, #24
ARM GAS  C:\Users\Susanna\AppData\Local\Temp\ccTg3hCl.s 			page 13


 372 01da FFF7FEFF 		bl	I2C_Peripheral_WriteRegister
 373              	.LVL72:
 314:main.c        ****                                          LIS3DH_FIFO_CTRL_REG,
 315:main.c        ****                                          fifo_ctrl_reg);
 316:main.c        ****         if (error == NO_ERROR)
 374              		.loc 1 316 0
 375 01de 48B9     		cbnz	r0, .L21
 317:main.c        ****         {
 318:main.c        ****             sprintf(message, "FIFO CONTROL REGISTER successfully written as: 0x%02X\r\n", fifo_ctrl
 376              		.loc 1 318 0
 377 01e0 9DF8DB20 		ldrb	r2, [sp, #219]	@ zero_extendqisi2
 378 01e4 5249     		ldr	r1, .L37+84
 379 01e6 51A8     		add	r0, sp, #324
 380              	.LVL73:
 381 01e8 FFF7FEFF 		bl	sprintf
 382              	.LVL74:
 319:main.c        ****             UART_PutString(message); 
 383              		.loc 1 319 0
 384 01ec 51A8     		add	r0, sp, #324
 385 01ee FFF7FEFF 		bl	UART_PutString
 386              	.LVL75:
 387 01f2 02E0     		b	.L20
 388              	.LVL76:
 389              	.L21:
 320:main.c        ****         }
 321:main.c        ****         else
 322:main.c        ****         {
 323:main.c        ****             UART_PutString("Error occurred during I2C comm to set FIFO control register \r\n");   
 390              		.loc 1 323 0
 391 01f4 4F48     		ldr	r0, .L37+88
 392              	.LVL77:
 393 01f6 FFF7FEFF 		bl	UART_PutString
 394              	.LVL78:
 395              	.L20:
 324:main.c        ****         }
 325:main.c        ****     }
 326:main.c        ****     
 327:main.c        **** 	//INT2 CONFIGURATION REGISTER
 328:main.c        ****     uint8_t int2__cfg_reg;
 329:main.c        ****     error = I2C_Peripheral_ReadRegister(LIS3DH_DEVICE_ADDRESS,
 396              		.loc 1 329 0
 397 01fa 0DF1DA02 		add	r2, sp, #218
 398 01fe 3421     		movs	r1, #52
 399 0200 1820     		movs	r0, #24
 400 0202 FFF7FEFF 		bl	I2C_Peripheral_ReadRegister
 401              	.LVL79:
 330:main.c        ****                                         LIS3DH_INT2_CFG,
 331:main.c        ****                                         &int2__cfg_reg); 
 332:main.c        ****      if (error == NO_ERROR)
 402              		.loc 1 332 0
 403 0206 48B9     		cbnz	r0, .L22
 333:main.c        ****     {
 334:main.c        ****         sprintf(message, "INT2 CONFIGURATION REGISTER: 0x%02X\r\n", int2__cfg_reg);
 404              		.loc 1 334 0
 405 0208 9DF8DA20 		ldrb	r2, [sp, #218]	@ zero_extendqisi2
 406 020c 4A49     		ldr	r1, .L37+92
 407 020e 51A8     		add	r0, sp, #324
ARM GAS  C:\Users\Susanna\AppData\Local\Temp\ccTg3hCl.s 			page 14


 408              	.LVL80:
 409 0210 FFF7FEFF 		bl	sprintf
 410              	.LVL81:
 335:main.c        ****         UART_PutString(message); 
 411              		.loc 1 335 0
 412 0214 51A8     		add	r0, sp, #324
 413 0216 FFF7FEFF 		bl	UART_PutString
 414              	.LVL82:
 415 021a 02E0     		b	.L23
 416              	.LVL83:
 417              	.L22:
 336:main.c        ****     }
 337:main.c        ****     else
 338:main.c        ****     {
 339:main.c        ****         UART_PutString("Error occurred during I2C comm to read INT2 CONFIGURATION REGISTER \r\n"); 
 418              		.loc 1 339 0
 419 021c 4748     		ldr	r0, .L37+96
 420              	.LVL84:
 421 021e FFF7FEFF 		bl	UART_PutString
 422              	.LVL85:
 423              	.L23:
 340:main.c        ****     }
 341:main.c        ****     
 342:main.c        ****     
 343:main.c        ****     if (int2__cfg_reg != LIS3DH_INT2_HIGH_EVENT)
 424              		.loc 1 343 0
 425 0222 9DF8DA30 		ldrb	r3, [sp, #218]	@ zero_extendqisi2
 426 0226 2A2B     		cmp	r3, #42
 427 0228 14D0     		beq	.L24
 344:main.c        ****     {
 345:main.c        ****         int2__cfg_reg = LIS3DH_INT2_HIGH_EVENT;
 428              		.loc 1 345 0
 429 022a 2A22     		movs	r2, #42
 430 022c 8DF8DA20 		strb	r2, [sp, #218]
 346:main.c        ****         error = I2C_Peripheral_WriteRegister(LIS3DH_DEVICE_ADDRESS,
 431              		.loc 1 346 0
 432 0230 3421     		movs	r1, #52
 433 0232 1820     		movs	r0, #24
 434 0234 FFF7FEFF 		bl	I2C_Peripheral_WriteRegister
 435              	.LVL86:
 347:main.c        ****                                          LIS3DH_INT2_CFG,
 348:main.c        ****                                          int2__cfg_reg);
 349:main.c        ****         if (error == NO_ERROR)
 436              		.loc 1 349 0
 437 0238 48B9     		cbnz	r0, .L25
 350:main.c        ****         {
 351:main.c        ****             sprintf(message, "INT2 CONFIGURATION REGISTER successfully written as: 0x%02X\r\n", int
 438              		.loc 1 351 0
 439 023a 9DF8DA20 		ldrb	r2, [sp, #218]	@ zero_extendqisi2
 440 023e 4049     		ldr	r1, .L37+100
 441 0240 51A8     		add	r0, sp, #324
 442              	.LVL87:
 443 0242 FFF7FEFF 		bl	sprintf
 444              	.LVL88:
 352:main.c        ****             UART_PutString(message); 
 445              		.loc 1 352 0
 446 0246 51A8     		add	r0, sp, #324
ARM GAS  C:\Users\Susanna\AppData\Local\Temp\ccTg3hCl.s 			page 15


 447 0248 FFF7FEFF 		bl	UART_PutString
 448              	.LVL89:
 449 024c 02E0     		b	.L24
 450              	.LVL90:
 451              	.L25:
 353:main.c        ****         }
 354:main.c        ****         else
 355:main.c        ****         {
 356:main.c        ****             UART_PutString("Error occurred during I2C comm to set INT2 CONFIGURATION REGISTER \r\n"
 452              		.loc 1 356 0
 453 024e 3D48     		ldr	r0, .L37+104
 454              	.LVL91:
 455 0250 FFF7FEFF 		bl	UART_PutString
 456              	.LVL92:
 457              	.L24:
 357:main.c        ****         }
 358:main.c        ****     }
 359:main.c        **** 
 360:main.c        ****     /* ----------------------------------------
 361:main.c        **** 			BRIEF VARIABLES FOR ACQUISITION
 362:main.c        ****             OF ACCEL. OUTPUT 
 363:main.c        **** 		--------------------------------------- */
 364:main.c        ****     
 365:main.c        ****     int16_t X_Out[32];
 366:main.c        ****     int16_t Y_Out[32];
 367:main.c        ****     int16_t Z_Out[32];
 368:main.c        ****     uint8_t OutArray[8]; 
 369:main.c        ****     uint8_t AccelerationData[32][6];
 370:main.c        ****     
 371:main.c        ****     uint8_t fifo_src_reg;
 372:main.c        ****     uint8 i=0;
 373:main.c        ****     uint8_t Parameters_read;
 374:main.c        ****     
 375:main.c        ****     /* When the device is turned on the state is STOP and the FSR is read from EEPROM */
 376:main.c        ****     int state=STOP;
 377:main.c        ****     Parameters=EEPROM_readByte(0x0000);
 458              		.loc 1 377 0
 459 0254 0020     		movs	r0, #0
 460 0256 FFF7FEFF 		bl	EEPROM_readByte
 461              	.LVL93:
 378:main.c        ****     Parameters=Parameters>>4;
 379:main.c        ****     Parameters=(Parameters<<4)|state;
 462              		.loc 1 379 0
 463 025a 00F47F60 		and	r0, r0, #4080
 464 025e 40F00103 		orr	r3, r0, #1
 465 0262 394A     		ldr	r2, .L37+108
 466 0264 1370     		strb	r3, [r2]
 376:main.c        ****     Parameters=EEPROM_readByte(0x0000);
 467              		.loc 1 376 0
 468 0266 4FF00108 		mov	r8, #1
 469              	.LVL94:
 470              	.L26:
 380:main.c        **** 
 381:main.c        **** 	
 382:main.c        ****     #define  HEADER 	0xA0;
 383:main.c        ****     #define  FOOTER 	0xC0;
 384:main.c        ****     
ARM GAS  C:\Users\Susanna\AppData\Local\Temp\ccTg3hCl.s 			page 16


 385:main.c        ****     OutArray[0] = HEADER;
 386:main.c        ****     OutArray[7] = FOOTER;
 387:main.c        ****     
 388:main.c        ****     for(;;)
 389:main.c        ****     {
 390:main.c        ****         if (button_pressed == 1)
 471              		.loc 1 390 0
 472 026a 1D4B     		ldr	r3, .L37+4
 473 026c 1B68     		ldr	r3, [r3]
 474 026e 012B     		cmp	r3, #1
 475 0270 02D1     		bne	.L28
 391:main.c        ****         {
 392:main.c        ****             state = Switch_State();
 476              		.loc 1 392 0
 477 0272 FFF7FEFF 		bl	Switch_State
 478              	.LVL95:
 479 0276 8046     		mov	r8, r0
 480              	.LVL96:
 481              	.L28:
 393:main.c        ****         }
 394:main.c        ****         switch (state)
 482              		.loc 1 394 0
 483 0278 B8F1010F 		cmp	r8, #1
 484 027c 00F0CF80 		beq	.L29
 485 0280 B8F1020F 		cmp	r8, #2
 486 0284 00F0F580 		beq	.L30
 487 0288 B8F1000F 		cmp	r8, #0
 488 028c EDD1     		bne	.L26
 395:main.c        ****         {
 396:main.c        ****             case (0):
 397:main.c        ****             Parameters=Parameters>>4;
 489              		.loc 1 397 0
 490 028e 2E4B     		ldr	r3, .L37+108
 491 0290 1978     		ldrb	r1, [r3]	@ zero_extendqisi2
 398:main.c        ****             Parameters=(Parameters<<4)|state;
 492              		.loc 1 398 0
 493 0292 01F0F001 		and	r1, r1, #240
 494 0296 41EA0801 		orr	r1, r1, r8
 495 029a C9B2     		uxtb	r1, r1
 496 029c 1970     		strb	r1, [r3]
 399:main.c        ****             EEPROM_writeByte(0x0000,Parameters);
 497              		.loc 1 399 0
 498 029e 0020     		movs	r0, #0
 499 02a0 FFF7FEFF 		bl	EEPROM_writeByte
 500              	.LVL97:
 400:main.c        ****             EEPROM_waitForWriteComplete();
 501              		.loc 1 400 0
 502 02a4 FFF7FEFF 		bl	EEPROM_waitForWriteComplete
 503              	.LVL98:
 401:main.c        ****             Parameters_read=EEPROM_readByte(0x0000);
 504              		.loc 1 401 0
 505 02a8 0020     		movs	r0, #0
 506 02aa FFF7FEFF 		bl	EEPROM_readByte
 507              	.LVL99:
 508 02ae 8146     		mov	r9, r0
 509              	.LVL100:
 402:main.c        ****             PWM_ONBOARD_Stop();
ARM GAS  C:\Users\Susanna\AppData\Local\Temp\ccTg3hCl.s 			page 17


 510              		.loc 1 402 0
 511 02b0 FFF7FEFF 		bl	PWM_ONBOARD_Stop
 512              	.LVL101:
 403:main.c        ****             PWM_ONBOARD_WriteCompare(255);
 513              		.loc 1 403 0
 514 02b4 FF20     		movs	r0, #255
 515 02b6 FFF7FEFF 		bl	PWM_ONBOARD_WriteCompare
 516              	.LVL102:
 404:main.c        ****             PWM_ONBOARD_Start();
 517              		.loc 1 404 0
 518 02ba FFF7FEFF 		bl	PWM_ONBOARD_Start
 519              	.LVL103:
 405:main.c        ****             error = I2C_Peripheral_ReadRegister(LIS3DH_DEVICE_ADDRESS,
 520              		.loc 1 405 0
 521 02be 0DF11702 		add	r2, sp, #23
 522 02c2 2F21     		movs	r1, #47
 523 02c4 1820     		movs	r0, #24
 524 02c6 FFF7FEFF 		bl	I2C_Peripheral_ReadRegister
 525              	.LVL104:
 406:main.c        ****                                          LIS3DH_FIFO_SRC_REG,
 407:main.c        ****                                          &fifo_src_reg);    
 408:main.c        **** 			if ((error == NO_ERROR) && ((fifo_src_reg) & (0x04)))
 526              		.loc 1 408 0
 527 02ca 0028     		cmp	r0, #0
 528 02cc CDD1     		bne	.L26
 529              		.loc 1 408 0 is_stmt 0 discriminator 1
 530 02ce 9DF81730 		ldrb	r3, [sp, #23]	@ zero_extendqisi2
 531 02d2 13F0040F 		tst	r3, #4
 532 02d6 40F08D80 		bne	.L35
 533 02da C6E7     		b	.L26
 534              	.L38:
 535              		.align	2
 536              	.L37:
 537 02dc 00000000 		.word	Switch_ISR
 538 02e0 00000000 		.word	button_pressed
 539 02e4 00000000 		.word	click_count
 540 02e8 00000000 		.word	.LC0
 541 02ec 20000000 		.word	.LC1
 542 02f0 5C000000 		.word	.LC2
 543 02f4 94000000 		.word	.LC3
 544 02f8 D0000000 		.word	.LC4
 545 02fc F0000000 		.word	.LC5
 546 0300 2C010000 		.word	.LC6
 547 0304 64010000 		.word	.LC7
 548 0308 A0010000 		.word	.LC8
 549 030c C0010000 		.word	.LC9
 550 0310 FC010000 		.word	.LC10
 551 0314 34020000 		.word	.LC11
 552 0318 70020000 		.word	.LC12
 553 031c 90020000 		.word	.LC13
 554 0320 CC020000 		.word	.LC14
 555 0324 04030000 		.word	.LC15
 556 0328 40030000 		.word	.LC16
 557 032c 60030000 		.word	.LC17
 558 0330 A0030000 		.word	.LC18
 559 0334 D8030000 		.word	.LC19
 560 0338 18040000 		.word	.LC20
ARM GAS  C:\Users\Susanna\AppData\Local\Temp\ccTg3hCl.s 			page 18


 561 033c 40040000 		.word	.LC21
 562 0340 88040000 		.word	.LC22
 563 0344 C8040000 		.word	.LC23
 564 0348 00000000 		.word	Parameters
 565              	.LVL105:
 566              	.L34:
 409:main.c        **** 			{
 410:main.c        **** 				for(i=0;i<32;i++)
 411:main.c        **** 				{
 412:main.c        **** 					// Read output registers - retrieval accel. data (X,Y,Z axis)
 413:main.c        **** 					error=I2C_Peripheral_ReadRegisterMulti(LIS3DH_DEVICE_ADDRESS,
 414:main.c        **** 													LIS3DH_OUT_X_L, 6,
 415:main.c        **** 													AccelerationData[i]);
 567              		.loc 1 415 0 is_stmt 1
 568 034c 04EB4403 		add	r3, r4, r4, lsl #1
 413:main.c        **** 													LIS3DH_OUT_X_L, 6,
 569              		.loc 1 413 0
 570 0350 06AA     		add	r2, sp, #24
 571 0352 02EB4303 		add	r3, r2, r3, lsl #1
 572 0356 0622     		movs	r2, #6
 573 0358 2821     		movs	r1, #40
 574 035a 1820     		movs	r0, #24
 575 035c FFF7FEFF 		bl	I2C_Peripheral_ReadRegisterMulti
 576              	.LVL106:
 416:main.c        **** 					if (error == NO_ERROR)
 577              		.loc 1 416 0
 578 0360 0028     		cmp	r0, #0
 579 0362 44D1     		bne	.L33
 417:main.c        **** 					{
 418:main.c        ****                 
 419:main.c        **** 						// Conversion of output data into right-justified 16 bit int (x-axis)
 420:main.c        **** 						X_Out[i]=(int16)((AccelerationData[i][0] | (AccelerationData[i][1] << 8))) >> 4;
 580              		.loc 1 420 0
 581 0364 06AA     		add	r2, sp, #24
 582 0366 6000     		lsls	r0, r4, #1
 583              	.LVL107:
 584 0368 0319     		adds	r3, r0, r4
 585 036a 02EB4307 		add	r7, r2, r3, lsl #1
 586 036e 12F81330 		ldrb	r3, [r2, r3, lsl #1]	@ zero_extendqisi2
 587 0372 7D78     		ldrb	r5, [r7, #1]	@ zero_extendqisi2
 588 0374 43EA0525 		orr	r5, r3, r5, lsl #8
 589 0378 45F30B15 		sbfx	r5, r5, #4, #12
 421:main.c        **** 						
 422:main.c        **** 						/*scaling to mg (sensitivity=2mg/digit)*/
 423:main.c        **** 						X_Out[i]=abs(X_Out[i]*sensitivity);
 590              		.loc 1 423 0
 591 037c 5249     		ldr	r1, .L39
 592 037e 0B78     		ldrb	r3, [r1]	@ zero_extendqisi2
 593 0380 03FB05F5 		mul	r5, r3, r5
 594 0384 002D     		cmp	r5, #0
 595 0386 B8BF     		it	lt
 596 0388 6D42     		rsblt	r5, r5, #0
 597 038a 2DB2     		sxth	r5, r5
 424:main.c        **** 						
 425:main.c        **** 						
 426:main.c        **** 						
 427:main.c        **** 						//MSB (x-axis)
ARM GAS  C:\Users\Susanna\AppData\Local\Temp\ccTg3hCl.s 			page 19


 428:main.c        **** 						OutArray[1]=(uint8_t)(X_Out[i] >> 8);
 429:main.c        **** 						//LSB (x-axis)
 430:main.c        **** 						OutArray[2]=(uint8_t)(X_Out[i] & 0xFF);
 431:main.c        **** 						
 432:main.c        **** 						// Conversion of output data into right-justified 16 bit int (y-axis)
 433:main.c        **** 						Y_Out[i]=(int16)((AccelerationData[i][2] | (AccelerationData[i][3] << 8))) >> 4;
 598              		.loc 1 433 0
 599 038c BB78     		ldrb	r3, [r7, #2]	@ zero_extendqisi2
 600 038e FE78     		ldrb	r6, [r7, #3]	@ zero_extendqisi2
 601 0390 43EA0626 		orr	r6, r3, r6, lsl #8
 602 0394 46F30B16 		sbfx	r6, r6, #4, #12
 434:main.c        **** 						
 435:main.c        **** 						/*scaling to mg (sensitivity=2mg/digit)*/
 436:main.c        **** 						Y_Out[i]=abs(Y_Out[i]*sensitivity);
 603              		.loc 1 436 0
 604 0398 0B78     		ldrb	r3, [r1]	@ zero_extendqisi2
 605 039a 03FB06F6 		mul	r6, r3, r6
 606 039e 002E     		cmp	r6, #0
 607 03a0 B8BF     		it	lt
 608 03a2 7642     		rsblt	r6, r6, #0
 609 03a4 36B2     		sxth	r6, r6
 437:main.c        **** 						
 438:main.c        **** 						 
 439:main.c        **** 						
 440:main.c        **** 						//MSB (x-axis)
 441:main.c        **** 						OutArray[3]=(uint8_t)(Y_Out[i] >> 8);
 442:main.c        **** 						//LSB (x-axis)
 443:main.c        **** 						OutArray[4]=(uint8_t)(Y_Out[i] & 0xFF);
 444:main.c        **** 						
 445:main.c        **** 						// Conversion of output data into right-justified 16 bit int (z-axis)
 446:main.c        **** 						Z_Out[i]=(int16)(AccelerationData[i][4] | (AccelerationData[i][5] << 8)) >> 4;
 610              		.loc 1 446 0
 611 03a6 3B79     		ldrb	r3, [r7, #4]	@ zero_extendqisi2
 612 03a8 7F79     		ldrb	r7, [r7, #5]	@ zero_extendqisi2
 613 03aa 43EA0727 		orr	r7, r3, r7, lsl #8
 614 03ae 47F30B17 		sbfx	r7, r7, #4, #12
 447:main.c        **** 						
 448:main.c        **** 						/*scaling to mg (sensitivity=2mg/digit)*/
 449:main.c        **** 						Z_Out[i]=abs(Z_Out[i]*sensitivity);
 615              		.loc 1 449 0
 616 03b2 0B78     		ldrb	r3, [r1]	@ zero_extendqisi2
 617 03b4 03FB07F7 		mul	r7, r3, r7
 618 03b8 002F     		cmp	r7, #0
 619 03ba B8BF     		it	lt
 620 03bc 7F42     		rsblt	r7, r7, #0
 621 03be 3FB2     		sxth	r7, r7
 450:main.c        **** 						
 451:main.c        **** 						set_PWM(X_Out[i],Y_Out[i],Z_Out[i]);
 622              		.loc 1 451 0
 623 03c0 3A46     		mov	r2, r7
 624 03c2 3146     		mov	r1, r6
 625 03c4 2846     		mov	r0, r5
 626 03c6 FFF7FEFF 		bl	set_PWM
 627              	.LVL108:
 452:main.c        **** 						
 453:main.c        **** 						//MSB (x-axis)
 454:main.c        **** 						OutArray[5]=(uint8_t)(Z_Out[i] >> 8);
ARM GAS  C:\Users\Susanna\AppData\Local\Temp\ccTg3hCl.s 			page 20


 455:main.c        **** 						//LSB (x-axis)
 456:main.c        **** 						OutArray[6]=(uint8_t)(Z_Out[i] & 0xFF);
 457:main.c        **** 					
 458:main.c        **** 						//UART_PutArray(OutArray,8);
 459:main.c        **** 						sprintf(message, "Acceleration data: %d %d %d 0x%02X (0x%02X)\r\n", X_Out[i],Y_Out[i],Z_Out[i
 628              		.loc 1 459 0
 629 03ca 404B     		ldr	r3, .L39+4
 630 03cc 1B78     		ldrb	r3, [r3]	@ zero_extendqisi2
 631 03ce 0293     		str	r3, [sp, #8]
 632 03d0 CDF80490 		str	r9, [sp, #4]
 633 03d4 0097     		str	r7, [sp]
 634 03d6 3346     		mov	r3, r6
 635 03d8 2A46     		mov	r2, r5
 636 03da 3D49     		ldr	r1, .L39+8
 637 03dc 51A8     		add	r0, sp, #324
 638 03de FFF7FEFF 		bl	sprintf
 639              	.LVL109:
 460:main.c        **** 						UART_PutString(message);
 640              		.loc 1 460 0
 641 03e2 51A8     		add	r0, sp, #324
 642 03e4 FFF7FEFF 		bl	UART_PutString
 643              	.LVL110:
 461:main.c        **** 						CyDelay(5);
 644              		.loc 1 461 0
 645 03e8 0520     		movs	r0, #5
 646 03ea FFF7FEFF 		bl	CyDelay
 647              	.LVL111:
 648              	.L33:
 410:main.c        **** 				{
 649              		.loc 1 410 0 discriminator 2
 650 03ee 0134     		adds	r4, r4, #1
 651              	.LVL112:
 652 03f0 E4B2     		uxtb	r4, r4
 653              	.LVL113:
 654 03f2 00E0     		b	.L32
 655              	.LVL114:
 656              	.L35:
 657 03f4 0024     		movs	r4, #0
 658              	.LVL115:
 659              	.L32:
 410:main.c        **** 				{
 660              		.loc 1 410 0 is_stmt 0 discriminator 1
 661 03f6 1F2C     		cmp	r4, #31
 662 03f8 A8D9     		bls	.L34
 462:main.c        ****                 
 463:main.c        **** 					}
 464:main.c        **** 				}
 465:main.c        **** 			
 466:main.c        **** 				// Enable Bypass mode
 467:main.c        **** 				fifo_ctrl_reg = LIS3DH_BYPASS_MODE;
 663              		.loc 1 467 0 is_stmt 1
 664 03fa 0022     		movs	r2, #0
 665 03fc 8DF8DB20 		strb	r2, [sp, #219]
 468:main.c        **** 				error = I2C_Peripheral_WriteRegister(LIS3DH_DEVICE_ADDRESS,
 666              		.loc 1 468 0
 667 0400 2E21     		movs	r1, #46
 668 0402 1820     		movs	r0, #24
ARM GAS  C:\Users\Susanna\AppData\Local\Temp\ccTg3hCl.s 			page 21


 669 0404 FFF7FEFF 		bl	I2C_Peripheral_WriteRegister
 670              	.LVL116:
 469:main.c        **** 													 LIS3DH_FIFO_CTRL_REG,
 470:main.c        **** 													 fifo_ctrl_reg); 
 471:main.c        ****         
 472:main.c        **** 				CyDelay(10);
 671              		.loc 1 472 0
 672 0408 0A20     		movs	r0, #10
 673 040a FFF7FEFF 		bl	CyDelay
 674              	.LVL117:
 473:main.c        **** 				
 474:main.c        **** 				// Enable FIFO mode again for next reading
 475:main.c        **** 				fifo_ctrl_reg = LIS3DH_FIFO_MODE;
 675              		.loc 1 475 0
 676 040e 4022     		movs	r2, #64
 677 0410 8DF8DB20 		strb	r2, [sp, #219]
 476:main.c        **** 				error = I2C_Peripheral_WriteRegister(LIS3DH_DEVICE_ADDRESS,
 678              		.loc 1 476 0
 679 0414 2E21     		movs	r1, #46
 680 0416 1820     		movs	r0, #24
 681 0418 FFF7FEFF 		bl	I2C_Peripheral_WriteRegister
 682              	.LVL118:
 683 041c 25E7     		b	.L26
 684              	.LVL119:
 685              	.L29:
 477:main.c        **** 													LIS3DH_FIFO_CTRL_REG,
 478:main.c        **** 													fifo_ctrl_reg);
 479:main.c        ****                 
 480:main.c        **** 			}
 481:main.c        ****             break;
 482:main.c        ****             
 483:main.c        ****             case(1):
 484:main.c        ****             Parameters=Parameters>>4;
 686              		.loc 1 484 0
 687 041e 2B4C     		ldr	r4, .L39+4
 688 0420 2178     		ldrb	r1, [r4]	@ zero_extendqisi2
 485:main.c        ****             Parameters=(Parameters<<4)|state;
 689              		.loc 1 485 0
 690 0422 01F0F001 		and	r1, r1, #240
 691 0426 41EA0801 		orr	r1, r1, r8
 692 042a C9B2     		uxtb	r1, r1
 693 042c 2170     		strb	r1, [r4]
 486:main.c        ****             EEPROM_writeByte(0x0000,Parameters);
 694              		.loc 1 486 0
 695 042e 0020     		movs	r0, #0
 696 0430 FFF7FEFF 		bl	EEPROM_writeByte
 697              	.LVL120:
 487:main.c        ****             EEPROM_waitForWriteComplete();
 698              		.loc 1 487 0
 699 0434 FFF7FEFF 		bl	EEPROM_waitForWriteComplete
 700              	.LVL121:
 488:main.c        ****             Parameters_read=EEPROM_readByte(0x0000);
 701              		.loc 1 488 0
 702 0438 0020     		movs	r0, #0
 703 043a FFF7FEFF 		bl	EEPROM_readByte
 704              	.LVL122:
 489:main.c        ****             sprintf(buffer_EEPROM," EEPROM Read = 0x%02X (0x%02X)\r\n", Parameters_read, Parameters
ARM GAS  C:\Users\Susanna\AppData\Local\Temp\ccTg3hCl.s 			page 22


 705              		.loc 1 489 0
 706 043e 2378     		ldrb	r3, [r4]	@ zero_extendqisi2
 707 0440 0246     		mov	r2, r0
 708 0442 2449     		ldr	r1, .L39+12
 709 0444 38A8     		add	r0, sp, #224
 710              	.LVL123:
 711 0446 FFF7FEFF 		bl	sprintf
 712              	.LVL124:
 490:main.c        ****             UART_PutString(buffer_EEPROM);
 713              		.loc 1 490 0
 714 044a 38A8     		add	r0, sp, #224
 715 044c FFF7FEFF 		bl	UART_PutString
 716              	.LVL125:
 491:main.c        ****             PWM_ONBOARD_Stop();
 717              		.loc 1 491 0
 718 0450 FFF7FEFF 		bl	PWM_ONBOARD_Stop
 719              	.LVL126:
 492:main.c        ****             PWM_ONBOARD_WriteCompare(0);
 720              		.loc 1 492 0
 721 0454 0020     		movs	r0, #0
 722 0456 FFF7FEFF 		bl	PWM_ONBOARD_WriteCompare
 723              	.LVL127:
 493:main.c        ****             PWM_ONBOARD_Start();
 724              		.loc 1 493 0
 725 045a FFF7FEFF 		bl	PWM_ONBOARD_Start
 726              	.LVL128:
 494:main.c        ****             
 495:main.c        ****             PWM_RG_WriteCompare1(255);
 727              		.loc 1 495 0
 728 045e FF20     		movs	r0, #255
 729 0460 FFF7FEFF 		bl	PWM_RG_WriteCompare1
 730              	.LVL129:
 496:main.c        ****             PWM_RG_WriteCompare2(0);
 731              		.loc 1 496 0
 732 0464 0020     		movs	r0, #0
 733 0466 FFF7FEFF 		bl	PWM_RG_WriteCompare2
 734              	.LVL130:
 497:main.c        ****             PWM_B_WriteCompare(255);
 735              		.loc 1 497 0
 736 046a FF20     		movs	r0, #255
 737 046c FFF7FEFF 		bl	PWM_B_WriteCompare
 738              	.LVL131:
 498:main.c        ****             break;
 739              		.loc 1 498 0
 740 0470 FBE6     		b	.L26
 741              	.L30:
 499:main.c        ****             
 500:main.c        ****             case(2):
 501:main.c        ****             PWM_ONBOARD_Stop();
 742              		.loc 1 501 0
 743 0472 FFF7FEFF 		bl	PWM_ONBOARD_Stop
 744              	.LVL132:
 502:main.c        ****             PWM_ONBOARD_WriteCompare(127);
 745              		.loc 1 502 0
 746 0476 7F20     		movs	r0, #127
 747 0478 FFF7FEFF 		bl	PWM_ONBOARD_WriteCompare
 748              	.LVL133:
ARM GAS  C:\Users\Susanna\AppData\Local\Temp\ccTg3hCl.s 			page 23


 503:main.c        ****             PWM_ONBOARD_Start();
 749              		.loc 1 503 0
 750 047c FFF7FEFF 		bl	PWM_ONBOARD_Start
 751              	.LVL134:
 504:main.c        ****             
 505:main.c        ****             PWM_RG_WriteCompare1(255);
 752              		.loc 1 505 0
 753 0480 FF20     		movs	r0, #255
 754 0482 FFF7FEFF 		bl	PWM_RG_WriteCompare1
 755              	.LVL135:
 506:main.c        ****             PWM_RG_WriteCompare2(0);
 756              		.loc 1 506 0
 757 0486 0020     		movs	r0, #0
 758 0488 FFF7FEFF 		bl	PWM_RG_WriteCompare2
 759              	.LVL136:
 507:main.c        ****             PWM_B_WriteCompare(255);
 760              		.loc 1 507 0
 761 048c FF20     		movs	r0, #255
 762 048e FFF7FEFF 		bl	PWM_B_WriteCompare
 763              	.LVL137:
 508:main.c        ****             
 509:main.c        ****             /* Set parameters (full-scale range) with potentiometer */
 510:main.c        ****             setParameter();
 764              		.loc 1 510 0
 765 0492 FFF7FEFF 		bl	setParameter
 766              	.LVL138:
 511:main.c        ****     
 512:main.c        ****             Parameters=(Parameters<<4)|state;
 767              		.loc 1 512 0
 768 0496 0D4C     		ldr	r4, .L39+4
 769 0498 2178     		ldrb	r1, [r4]	@ zero_extendqisi2
 770 049a 48EA0111 		orr	r1, r8, r1, lsl #4
 771 049e C9B2     		uxtb	r1, r1
 772 04a0 2170     		strb	r1, [r4]
 513:main.c        ****             EEPROM_writeByte(0x0000,Parameters);
 773              		.loc 1 513 0
 774 04a2 0020     		movs	r0, #0
 775 04a4 FFF7FEFF 		bl	EEPROM_writeByte
 776              	.LVL139:
 514:main.c        ****             EEPROM_waitForWriteComplete();
 777              		.loc 1 514 0
 778 04a8 FFF7FEFF 		bl	EEPROM_waitForWriteComplete
 779              	.LVL140:
 515:main.c        ****             
 516:main.c        ****             Parameters_read=EEPROM_readByte(0x0000);
 780              		.loc 1 516 0
 781 04ac 0020     		movs	r0, #0
 782 04ae FFF7FEFF 		bl	EEPROM_readByte
 783              	.LVL141:
 517:main.c        ****             sprintf(buffer_EEPROM," EEPROM Read = 0x%02X (0x%02X)\r\n", Parameters_read, Parameters
 784              		.loc 1 517 0
 785 04b2 2378     		ldrb	r3, [r4]	@ zero_extendqisi2
 786 04b4 0246     		mov	r2, r0
 787 04b6 0749     		ldr	r1, .L39+12
 788 04b8 38A8     		add	r0, sp, #224
 789              	.LVL142:
 790 04ba FFF7FEFF 		bl	sprintf
ARM GAS  C:\Users\Susanna\AppData\Local\Temp\ccTg3hCl.s 			page 24


 791              	.LVL143:
 518:main.c        ****             UART_PutString(buffer_EEPROM);
 792              		.loc 1 518 0
 793 04be 38A8     		add	r0, sp, #224
 794 04c0 FFF7FEFF 		bl	UART_PutString
 795              	.LVL144:
 519:main.c        ****             break;
 796              		.loc 1 519 0
 797 04c4 D1E6     		b	.L26
 798              	.L40:
 799 04c6 00BF     		.align	2
 800              	.L39:
 801 04c8 00000000 		.word	sensitivity
 802 04cc 00000000 		.word	Parameters
 803 04d0 10050000 		.word	.LC24
 804 04d4 40050000 		.word	.LC25
 805              		.cfi_endproc
 806              	.LFE64:
 807              		.size	main, .-main
 808              		.comm	Parameters,1,1
 809              		.comm	sensitivity,1,1
 810              		.comm	fullscale_range,2,2
 811              		.comm	click_count,4,4
 812              		.comm	button_pressed,4,4
 813              		.section	.rodata.str1.4,"aMS",%progbits,1
 814              		.align	2
 815              	.LC0:
 816 0000 434F4E54 		.ascii	"CONTROL REGISTER 1: 0x%02X\015\012\000"
 816      524F4C20 
 816      52454749 
 816      53544552 
 816      20313A20 
 817 001d 000000   		.space	3
 818              	.LC1:
 819 0020 4572726F 		.ascii	"Error occurred during I2C comm to read control regi"
 819      72206F63 
 819      63757272 
 819      65642064 
 819      7572696E 
 820 0053 73746572 		.ascii	"ster 1\015\012\000"
 820      20310D0A 
 820      00
 821              	.LC2:
 822 005c 434F4E54 		.ascii	"CONTROL REGISTER 1 successfully written as: 0x%02X\015"
 822      524F4C20 
 822      52454749 
 822      53544552 
 822      20312073 
 823 008f 0A00     		.ascii	"\012\000"
 824 0091 000000   		.space	3
 825              	.LC3:
 826 0094 4572726F 		.ascii	"Error occurred during I2C comm to set control regis"
 826      72206F63 
 826      63757272 
 826      65642064 
 826      7572696E 
 827 00c7 74657220 		.ascii	"ter 1\015\012\000"
ARM GAS  C:\Users\Susanna\AppData\Local\Temp\ccTg3hCl.s 			page 25


 827      310D0A00 
 828 00cf 00       		.space	1
 829              	.LC4:
 830 00d0 434F4E54 		.ascii	"CONTROL REGISTER 3: 0x%02X\015\012\000"
 830      524F4C20 
 830      52454749 
 830      53544552 
 830      20333A20 
 831 00ed 000000   		.space	3
 832              	.LC5:
 833 00f0 4572726F 		.ascii	"Error occurred during I2C comm to read control regi"
 833      72206F63 
 833      63757272 
 833      65642064 
 833      7572696E 
 834 0123 73746572 		.ascii	"ster 3\015\012\000"
 834      20330D0A 
 834      00
 835              	.LC6:
 836 012c 434F4E54 		.ascii	"CONTROL REGISTER 3 successfully written as: 0x%02X\015"
 836      524F4C20 
 836      52454749 
 836      53544552 
 836      20332073 
 837 015f 0A00     		.ascii	"\012\000"
 838 0161 000000   		.space	3
 839              	.LC7:
 840 0164 4572726F 		.ascii	"Error occurred during I2C comm to set control regis"
 840      72206F63 
 840      63757272 
 840      65642064 
 840      7572696E 
 841 0197 74657220 		.ascii	"ter 3\015\012\000"
 841      330D0A00 
 842 019f 00       		.space	1
 843              	.LC8:
 844 01a0 434F4E54 		.ascii	"CONTROL REGISTER 4: 0x%02X\015\012\000"
 844      524F4C20 
 844      52454749 
 844      53544552 
 844      20343A20 
 845 01bd 000000   		.space	3
 846              	.LC9:
 847 01c0 4572726F 		.ascii	"Error occurred during I2C comm to read control regi"
 847      72206F63 
 847      63757272 
 847      65642064 
 847      7572696E 
 848 01f3 73746572 		.ascii	"ster 4\015\012\000"
 848      20340D0A 
 848      00
 849              	.LC10:
 850 01fc 434F4E54 		.ascii	"CONTROL REGISTER 4 successfully written as: 0x%02X\015"
 850      524F4C20 
 850      52454749 
 850      53544552 
 850      20342073 
ARM GAS  C:\Users\Susanna\AppData\Local\Temp\ccTg3hCl.s 			page 26


 851 022f 0A00     		.ascii	"\012\000"
 852 0231 000000   		.space	3
 853              	.LC11:
 854 0234 4572726F 		.ascii	"Error occurred during I2C comm to set control regis"
 854      72206F63 
 854      63757272 
 854      65642064 
 854      7572696E 
 855 0267 74657220 		.ascii	"ter 4\015\012\000"
 855      340D0A00 
 856 026f 00       		.space	1
 857              	.LC12:
 858 0270 434F4E54 		.ascii	"CONTROL REGISTER 5: 0x%02X\015\012\000"
 858      524F4C20 
 858      52454749 
 858      53544552 
 858      20353A20 
 859 028d 000000   		.space	3
 860              	.LC13:
 861 0290 4572726F 		.ascii	"Error occurred during I2C comm to read control regi"
 861      72206F63 
 861      63757272 
 861      65642064 
 861      7572696E 
 862 02c3 73746572 		.ascii	"ster 5\015\012\000"
 862      20350D0A 
 862      00
 863              	.LC14:
 864 02cc 434F4E54 		.ascii	"CONTROL REGISTER 5 successfully written as: 0x%02X\015"
 864      524F4C20 
 864      52454749 
 864      53544552 
 864      20352073 
 865 02ff 0A00     		.ascii	"\012\000"
 866 0301 000000   		.space	3
 867              	.LC15:
 868 0304 4572726F 		.ascii	"Error occurred during I2C comm to set control regis"
 868      72206F63 
 868      63757272 
 868      65642064 
 868      7572696E 
 869 0337 74657220 		.ascii	"ter 5\015\012\000"
 869      350D0A00 
 870 033f 00       		.space	1
 871              	.LC16:
 872 0340 4649464F 		.ascii	"FIFO CONTROL REGISTER: 0x%02X\015\012\000"
 872      20434F4E 
 872      54524F4C 
 872      20524547 
 872      49535445 
 873              	.LC17:
 874 0360 4572726F 		.ascii	"Error occurred during I2C comm to read FIFO control"
 874      72206F63 
 874      63757272 
 874      65642064 
 874      7572696E 
 875 0393 20726567 		.ascii	" register \015\012\000"
ARM GAS  C:\Users\Susanna\AppData\Local\Temp\ccTg3hCl.s 			page 27


 875      69737465 
 875      72200D0A 
 875      00
 876              	.LC18:
 877 03a0 4649464F 		.ascii	"FIFO CONTROL REGISTER successfully written as: 0x%0"
 877      20434F4E 
 877      54524F4C 
 877      20524547 
 877      49535445 
 878 03d3 32580D0A 		.ascii	"2X\015\012\000"
 878      00
 879              	.LC19:
 880 03d8 4572726F 		.ascii	"Error occurred during I2C comm to set FIFO control "
 880      72206F63 
 880      63757272 
 880      65642064 
 880      7572696E 
 881 040b 72656769 		.ascii	"register \015\012\000"
 881      73746572 
 881      200D0A00 
 882 0417 00       		.space	1
 883              	.LC20:
 884 0418 494E5432 		.ascii	"INT2 CONFIGURATION REGISTER: 0x%02X\015\012\000"
 884      20434F4E 
 884      46494755 
 884      52415449 
 884      4F4E2052 
 885 043e 0000     		.space	2
 886              	.LC21:
 887 0440 4572726F 		.ascii	"Error occurred during I2C comm to read INT2 CONFIGU"
 887      72206F63 
 887      63757272 
 887      65642064 
 887      7572696E 
 888 0473 52415449 		.ascii	"RATION REGISTER \015\012\000"
 888      4F4E2052 
 888      45474953 
 888      54455220 
 888      0D0A00
 889 0486 0000     		.space	2
 890              	.LC22:
 891 0488 494E5432 		.ascii	"INT2 CONFIGURATION REGISTER successfully written as"
 891      20434F4E 
 891      46494755 
 891      52415449 
 891      4F4E2052 
 892 04bb 3A203078 		.ascii	": 0x%02X\015\012\000"
 892      25303258 
 892      0D0A00
 893 04c6 0000     		.space	2
 894              	.LC23:
 895 04c8 4572726F 		.ascii	"Error occurred during I2C comm to set INT2 CONFIGUR"
 895      72206F63 
 895      63757272 
 895      65642064 
 895      7572696E 
 896 04fb 4154494F 		.ascii	"ATION REGISTER \015\012\000"
ARM GAS  C:\Users\Susanna\AppData\Local\Temp\ccTg3hCl.s 			page 28


 896      4E205245 
 896      47495354 
 896      4552200D 
 896      0A00
 897 050d 000000   		.space	3
 898              	.LC24:
 899 0510 41636365 		.ascii	"Acceleration data: %d %d %d 0x%02X (0x%02X)\015\012"
 899      6C657261 
 899      74696F6E 
 899      20646174 
 899      613A2025 
 900 053d 00       		.ascii	"\000"
 901 053e 0000     		.space	2
 902              	.LC25:
 903 0540 20454550 		.ascii	" EEPROM Read = 0x%02X (0x%02X)\015\012\000"
 903      524F4D20 
 903      52656164 
 903      203D2030 
 903      78253032 
 904              		.text
 905              	.Letext0:
 906              		.file 2 "c:\\program files (x86)\\cypress\\psoc creator\\4.3\\psoc creator\\import\\gnu\\arm\\5.4.
 907              		.file 3 "c:\\program files (x86)\\cypress\\psoc creator\\4.3\\psoc creator\\import\\gnu\\arm\\5.4.
 908              		.file 4 "Generated_Source\\PSoC5/cytypes.h"
 909              		.file 5 "ErrorCodes.h"
 910              		.file 6 "Generated_Source\\PSoC5/core_cm3.h"
 911              		.file 7 "InterruptRoutines.h"
 912              		.file 8 "SettingParameter.h"
 913              		.file 9 "I2C_Interface.h"
 914              		.file 10 "Generated_Source\\PSoC5/UART.h"
 915              		.file 11 "RGBLedDriver.h"
 916              		.file 12 "Generated_Source\\PSoC5/PWM_ONBOARD.h"
 917              		.file 13 "Generated_Source\\PSoC5/ISR_SW.h"
 918              		.file 14 "Generated_Source\\PSoC5/Timer_SW.h"
 919              		.file 15 "Generated_Source\\PSoC5/SPIM.h"
 920              		.file 16 "Generated_Source\\PSoC5/ADC_DelSig.h"
 921              		.file 17 "Generated_Source\\PSoC5/CyLib.h"
 922              		.file 18 "c:\\program files (x86)\\cypress\\psoc creator\\4.3\\psoc creator\\import\\gnu\\arm\\5.4
 923              		.file 19 "25LC256.h"
 924              		.file 20 "SW_State.h"
 925              		.file 21 "Generated_Source\\PSoC5/PWM_RG.h"
 926              		.file 22 "Generated_Source\\PSoC5/PWM_B.h"