ARM GAS  C:\Users\Susanna\AppData\Local\Temp\ccpgn79U.s 			page 1


   1              		.syntax unified
   2              		.cpu cortex-m3
   3              		.fpu softvfp
   4              		.eabi_attribute 20, 1
   5              		.eabi_attribute 21, 1
   6              		.eabi_attribute 23, 3
   7              		.eabi_attribute 24, 1
   8              		.eabi_attribute 25, 1
   9              		.eabi_attribute 26, 1
  10              		.eabi_attribute 30, 1
  11              		.eabi_attribute 34, 1
  12              		.eabi_attribute 18, 4
  13              		.thumb
  14              		.syntax unified
  15              		.file	"main.c"
  16              		.text
  17              	.Ltext0:
  18              		.cfi_sections	.debug_frame
  19              		.section	.text.main,"ax",%progbits
  20              		.align	2
  21              		.global	main
  22              		.thumb
  23              		.thumb_func
  24              		.type	main, %function
  25              	main:
  26              	.LFB64:
  27              		.file 1 "main.c"
   1:main.c        **** /* ========================================
   2:main.c        ****  * \file main.c
   3:main.c        ****  *
   4:main.c        ****  *
   5:main.c        ****  * ========================================
   6:main.c        **** */
   7:main.c        **** 
   8:main.c        **** // Include header files
   9:main.c        **** #include "I2C_Interface.h"
  10:main.c        **** #include "project.h"
  11:main.c        **** #include "stdio.h"
  12:main.c        **** #include "RGBLedDriver.h"
  13:main.c        **** #include "InterruptRoutines.h"
  14:main.c        **** #include "SW_State.h"
  15:main.c        **** #include "stdlib.h"
  16:main.c        **** #include <string.h>
  17:main.c        **** #include "25LC256.h"
  18:main.c        **** #include "SettingParameter.h"
  19:main.c        **** 
  20:main.c        **** /* -------------------------------------------------
  21:main.c        ****   BRIEF MACROS FOR LIS3DH REGISTERS CONFIGURATION
  22:main.c        ****   ------------------------------------------------ */
  23:main.c        **** //Brief slave device address
  24:main.c        **** #define LIS3DH_DEVICE_ADDRESS 0x18
  25:main.c        **** 
  26:main.c        **** //Brief WHO AM I register address
  27:main.c        **** #define LIS3DH_WHO_AM_I_REG_ADDR 0x0F
  28:main.c        **** 
  29:main.c        **** //Brieg CONTROL REGISTER 1 address
  30:main.c        **** #define LIS3DH_CTRL_REG1 0x20
ARM GAS  C:\Users\Susanna\AppData\Local\Temp\ccpgn79U.s 			page 2


  31:main.c        **** 
  32:main.c        **** /*Brief HEX value for CONTROL REGISTER 1: Low power mode at 50 Hz
  33:main.c        **** CTRL_REG1[3]=LPen=1 (Low power mode enable);
  34:main.c        **** CTRL_REG1[7:4]=ODR[3:0]=0100 (50 Hz) */
  35:main.c        **** #define LIS3DH_LP_MODE_50_HZ_CTRL_REG1 0x4F
  36:main.c        **** 
  37:main.c        **** //Brieg CONTROL REGISTER 3 address
  38:main.c        **** #define LIS3DH_CTRL_REG3 0x22
  39:main.c        **** 
  40:main.c        **** /*Brief HEX value for CONTROL REGISTER 3: 
  41:main.c        **** CTRL_REG3[1]=I1_OVERRUN=1 (FIFO overrun interrupt on INT1 enable) */
  42:main.c        **** #define LIS3DH_OVERRUN_INT_CTRL_REG3 0x02 
  43:main.c        **** 
  44:main.c        **** //Brief CONTROL REGISTER 4 address
  45:main.c        **** #define LIS3DH_CTRL_REG4 0x23
  46:main.c        **** 
  47:main.c        **** /*Brief HEX value for CONTROL REGISTER 4: +- 2.0 g FSR
  48:main.c        **** CTRL_REG4[3]=0 (High resolution disabled)
  49:main.c        **** CTRL_REG4[5:4]=FS[1:0]=00 (2.0 g FSR) */
  50:main.c        **** #define LIS3DH_CTRL_REG4_2g 0x80
  51:main.c        **** 
  52:main.c        **** /*Brief HEX value for CONTROL REGISTER 4: +- 4.0 g FSR
  53:main.c        **** CTRL_REG4[3]=0 (High resolution disabled)
  54:main.c        **** CTRL_REG4[5:4]=FS[1:0]=01 (4.0 g FSR) */
  55:main.c        **** #define LIS3DH_CTRL_REG4_4g 0x90
  56:main.c        **** 
  57:main.c        **** /*Brief HEX value for CONTROL REGISTER 4: +- 8.0 g FSR
  58:main.c        **** CTRL_REG4[3]=0 (High resolution disabled)
  59:main.c        **** CTRL_REG4[5:4]=FS[1:0]=10 (8.0 g FSR) */
  60:main.c        **** #define LIS3DH_CTRL_REG4_8g 0xA0
  61:main.c        **** 
  62:main.c        **** /*Brief HEX value for CONTROL REGISTER 4: +- 16.0 g FSR
  63:main.c        **** CTRL_REG4[3]=0 (High resolution disabled)
  64:main.c        **** CTRL_REG4[5:4]=FS[1:0]=11 (16.0 g FSR) */
  65:main.c        **** #define LIS3DH_CTRL_REG4_16g 0xB0
  66:main.c        **** 
  67:main.c        **** //Brief CONTROL REGISTER 5 address
  68:main.c        **** #define LIS3DH_CTRL_REG5 0x24
  69:main.c        **** 
  70:main.c        **** /*Brief HEX value for CONTROL REGISTER 5:
  71:main.c        **** CTRL_REG5[6]=FIFO_EN=1 (enable FIFO buffer)
  72:main.c        **** CTRL_REG5[1]=LIR_INT2=1 (Latch interrupt request on INT2_SRC register)*/
  73:main.c        **** #define LIS3DH_FIFO_ENABLED 0x42
  74:main.c        **** 
  75:main.c        **** //Brief CONTROL REGISTER 6 address
  76:main.c        **** #define LIS3DH_CTRL_REG6 0x25
  77:main.c        **** 
  78:main.c        **** /*Brief HEX value for CONTROL REGISTER 6:
  79:main.c        **** CTRL_REG6[5]=I2_IA2=1 (Enable interrupt 2 function on INT2 pin)*/
  80:main.c        **** #define LIS3DH_I2_IA2 0x20 
  81:main.c        **** 
  82:main.c        **** //Brief FIFO CONTROL REGISTER address
  83:main.c        **** #define LIS3DH_FIFO_CTRL_REG 0x2E
  84:main.c        **** 
  85:main.c        **** /*Brief HEX value for FIFO CONTROL REGISTER in FIFO MODE:
  86:main.c        **** FIFO_CTRL_REG[7:6]=FM[1:0]=01 (FIFO mode)*/
  87:main.c        **** #define LIS3DH_FIFO_MODE 0x40  
ARM GAS  C:\Users\Susanna\AppData\Local\Temp\ccpgn79U.s 			page 3


  88:main.c        **** 
  89:main.c        **** /*Brief HEX value for FIFO CONTROL REGISTER in BYPASS MODE:
  90:main.c        **** FIFO_CTRL_REG[7:6]=FM[1:0]=00 (BYPASS mode)*/
  91:main.c        **** #define LIS3DH_BYPASS_MODE 0x00 
  92:main.c        **** 
  93:main.c        **** //Brief FIFO SRC REGISTER address
  94:main.c        **** #define LIS3DH_FIFO_SRC_REG 0x2F
  95:main.c        **** 
  96:main.c        **** //Brief INT1 SRC register address
  97:main.c        **** #define LIS3DH_INT1_SRC 0x31
  98:main.c        **** 
  99:main.c        **** //Brief INT2 CONFIGURATION register address
 100:main.c        **** #define LIS3DH_INT2_CFG 0x34
 101:main.c        **** 
 102:main.c        **** /*Brief HEX value for IN2 CONFIGURATION register:
 103:main.c        **** INT2_CFG[5]=ZHIE=1;
 104:main.c        **** INT2_CFG[3]=YHIE=1;
 105:main.c        **** INT2_CFG[1]=XHIE=1 (Interrupt request on measured accel. value higher than preset
 106:main.c        **** threshold)
 107:main.c        **** */
 108:main.c        **** #define LIS3DH_INT2_HIGH_EVENT 0x2A
 109:main.c        **** 
 110:main.c        **** //Brief INT2 SRC register address
 111:main.c        **** #define LIS3DH_INT2_SRC 0x35
 112:main.c        **** 
 113:main.c        **** //Brief INT2 THRESHOLD register address
 114:main.c        **** #define LIS3DH_INT2_THS 0x36
 115:main.c        **** 
 116:main.c        **** /*Brief HEX value for INT2 THRESHOLD register for the different fullscale ranges: 
 117:main.c        **** */
 118:main.c        **** #define LIS3DH_THRESHOLD_EVENTS_2g  0x5E   // about 1500g
 119:main.c        **** #define LIS3DH_THRESHOLD_EVENTS_4g  0x2F   // about 1500g
 120:main.c        **** #define LIS3DH_THRESHOLD_EVENTS_8g  0x18   // about 1500g
 121:main.c        **** #define LIS3DH_THRESHOLD_EVENTS_16g 0x08   // about 1500g
 122:main.c        **** 
 123:main.c        **** //Brief INT2 DURATION register address
 124:main.c        **** #define LIS3DH_INT2_DURATION 0x37 
 125:main.c        **** 
 126:main.c        **** /*Brief HEX value for INT2 DURATION register:
 127:main.c        **** */
 128:main.c        **** #define LIS3DH_DURATION_EVENT 0x03         // 0.3 sec
 129:main.c        **** 
 130:main.c        **** //Brief OUT_X_L register address (x-axis output LSB)
 131:main.c        **** #define LIS3DH_OUT_X_L 0x28
 132:main.c        **** 
 133:main.c        **** //Brief OUT_Y_L register address (y-axis output LSB)
 134:main.c        **** #define LIS3DH_OUT_Y_L 0x2A
 135:main.c        **** 
 136:main.c        **** //Brief OUT_Z_L register address (z-axis output LSB)
 137:main.c        **** #define LIS3DH_OUT_Z_L 0x2C
 138:main.c        **** 
 139:main.c        **** /*Brief HEX value for over threshold data (INT2_SRC register):
 140:main.c        **** INT2_SRC[6]=IA=1 (an interrupt has been generated)
 141:main.c        **** INT2_SRC[1]=XH=1 if measured acc. is higher that threshold
 142:main.c        **** INT2_SRC[3]=YH=1 if measured acc. is higher that threshold
 143:main.c        **** INT2_SRC[5]=ZH=1 if measured acc. is higher that threshold
 144:main.c        **** */
ARM GAS  C:\Users\Susanna\AppData\Local\Temp\ccpgn79U.s 			page 4


 145:main.c        **** #define X_HIGH 0x42
 146:main.c        **** #define Y_HIGH 0x48
 147:main.c        **** #define Z_HIGH 0x60
 148:main.c        **** 
 149:main.c        **** /*Mask for the OVR_FIFO bit in the FIFO_SRC register:
 150:main.c        **** FIFO_SRC[6]=OVR_FIFO=1 */
 151:main.c        **** #define OVR_FIFO 0x04
 152:main.c        **** 
 153:main.c        **** 
 154:main.c        **** 
 155:main.c        **** int main(void)
 156:main.c        **** {
  28              		.loc 1 156 0
  29              		.cfi_startproc
  30              		@ args = 0, pretend = 0, frame = 400
  31              		@ frame_needed = 0, uses_anonymous_args = 0
  32 0000 2DE9F04F 		push	{r4, r5, r6, r7, r8, r9, r10, fp, lr}
  33              		.cfi_def_cfa_offset 36
  34              		.cfi_offset 4, -36
  35              		.cfi_offset 5, -32
  36              		.cfi_offset 6, -28
  37              		.cfi_offset 7, -24
  38              		.cfi_offset 8, -20
  39              		.cfi_offset 9, -16
  40              		.cfi_offset 10, -12
  41              		.cfi_offset 11, -8
  42              		.cfi_offset 14, -4
  43 0004 E9B0     		sub	sp, sp, #420
  44              		.cfi_def_cfa_offset 456
 157:main.c        ****     CyGlobalIntEnable; 
  45              		.loc 1 157 0
  46              		.syntax unified
  47              	@ 157 "main.c" 1
  48 0006 62B6     		CPSIE   i
  49              	@ 0 "" 2
 158:main.c        ****     
 159:main.c        ****     /* -------------------------------------
 160:main.c        **** 	           INITIALIZATION
 161:main.c        **** 	---------------------------------------- */
 162:main.c        ****     
 163:main.c        ****     I2C_Peripheral_Start();
  50              		.loc 1 163 0
  51              		.thumb
  52              		.syntax unified
  53 0008 FFF7FEFF 		bl	I2C_Peripheral_Start
  54              	.LVL0:
 164:main.c        ****     UART_Start();
  55              		.loc 1 164 0
  56 000c FFF7FEFF 		bl	UART_Start
  57              	.LVL1:
 165:main.c        ****     
 166:main.c        ****     RGBLed_Start();
  58              		.loc 1 166 0
  59 0010 FFF7FEFF 		bl	RGBLed_Start
  60              	.LVL2:
 167:main.c        ****     PWM_ONBOARD_Start();
  61              		.loc 1 167 0
ARM GAS  C:\Users\Susanna\AppData\Local\Temp\ccpgn79U.s 			page 5


  62 0014 FFF7FEFF 		bl	PWM_ONBOARD_Start
  63              	.LVL3:
 168:main.c        ****    
 169:main.c        ****     ISR_SW_StartEx(Switch_ISR);
  64              		.loc 1 169 0
  65 0018 A748     		ldr	r0, .L56
  66 001a FFF7FEFF 		bl	ISR_SW_StartEx
  67              	.LVL4:
 170:main.c        ****     isr_TimePassed_StartEx(TIME_ISR);
  68              		.loc 1 170 0
  69 001e A748     		ldr	r0, .L56+4
  70 0020 FFF7FEFF 		bl	isr_TimePassed_StartEx
  71              	.LVL5:
 171:main.c        ****     
 172:main.c        ****     Timer_SW_Start();
  72              		.loc 1 172 0
  73 0024 FFF7FEFF 		bl	Timer_SW_Start
  74              	.LVL6:
 173:main.c        ****     Timer_CountTime_Start();
  75              		.loc 1 173 0
  76 0028 FFF7FEFF 		bl	Timer_CountTime_Start
  77              	.LVL7:
 174:main.c        ****     
 175:main.c        ****     SPIM_Start();
  78              		.loc 1 175 0
  79 002c FFF7FEFF 		bl	SPIM_Start
  80              	.LVL8:
 176:main.c        ****     ADC_DelSig_Start();
  81              		.loc 1 176 0
  82 0030 FFF7FEFF 		bl	ADC_DelSig_Start
  83              	.LVL9:
 177:main.c        ****     
 178:main.c        ****     // Initialization of the variables
 179:main.c        ****     button_pressed  = 0;
  84              		.loc 1 179 0
  85 0034 0023     		movs	r3, #0
  86 0036 A24A     		ldr	r2, .L56+8
  87 0038 1360     		str	r3, [r2]
 180:main.c        ****     click_count     = 0;
  88              		.loc 1 180 0
  89 003a A24A     		ldr	r2, .L56+12
  90 003c 1360     		str	r3, [r2]
 181:main.c        ****     time_passed     = 0;
  91              		.loc 1 181 0
  92 003e A24A     		ldr	r2, .L56+16
  93 0040 1380     		strh	r3, [r2]	@ movhi
 182:main.c        ****     
 183:main.c        ****     //"The boot procedure is complete about 5 milliseconds after device power-up."
 184:main.c        ****     CyDelay(5); 
  94              		.loc 1 184 0
  95 0042 0520     		movs	r0, #5
  96 0044 FFF7FEFF 		bl	CyDelay
  97              	.LVL10:
 185:main.c        ****    
 186:main.c        ****     /* -----------------------------------------
 187:main.c        **** 		READING AND WRITING OF LIS3DH REGISTERS
 188:main.c        **** 		---------------------------------------- */
ARM GAS  C:\Users\Susanna\AppData\Local\Temp\ccpgn79U.s 			page 6


 189:main.c        ****     
 190:main.c        ****     char message[50];
 191:main.c        ****     char buffer_EEPROM[100];
 192:main.c        ****     
 193:main.c        ****     // CONTROL REGISTER 1
 194:main.c        ****     uint8_t ctrl_reg1; 
 195:main.c        ****     ErrorCode error = I2C_Peripheral_ReadRegister(LIS3DH_DEVICE_ADDRESS,
  98              		.loc 1 195 0
  99 0048 0DF20712 		addw	r2, sp, #263
 100 004c 2021     		movs	r1, #32
 101 004e 1820     		movs	r0, #24
 102 0050 FFF7FEFF 		bl	I2C_Peripheral_ReadRegister
 103              	.LVL11:
 196:main.c        ****                                         LIS3DH_CTRL_REG1,
 197:main.c        ****                                         &ctrl_reg1);
 198:main.c        ****      if (error == NO_ERROR)
 104              		.loc 1 198 0
 105 0054 48B9     		cbnz	r0, .L2
 199:main.c        ****     {
 200:main.c        ****         sprintf(message, "CONTROL REGISTER 1: 0x%02X\r\n", ctrl_reg1);
 106              		.loc 1 200 0
 107 0056 9DF80721 		ldrb	r2, [sp, #263]	@ zero_extendqisi2
 108 005a 9C49     		ldr	r1, .L56+20
 109 005c 5BA8     		add	r0, sp, #364
 110              	.LVL12:
 111 005e FFF7FEFF 		bl	sprintf
 112              	.LVL13:
 201:main.c        ****         UART_PutString(message); 
 113              		.loc 1 201 0
 114 0062 5BA8     		add	r0, sp, #364
 115 0064 FFF7FEFF 		bl	UART_PutString
 116              	.LVL14:
 117 0068 02E0     		b	.L3
 118              	.LVL15:
 119              	.L2:
 202:main.c        ****     }
 203:main.c        ****     else
 204:main.c        ****     {
 205:main.c        ****         UART_PutString("Error occurred during I2C comm to read control register 1\r\n");   
 120              		.loc 1 205 0
 121 006a 9948     		ldr	r0, .L56+24
 122              	.LVL16:
 123 006c FFF7FEFF 		bl	UART_PutString
 124              	.LVL17:
 125              	.L3:
 206:main.c        ****     }
 207:main.c        ****     
 208:main.c        **** 
 209:main.c        ****     if (ctrl_reg1 != LIS3DH_LP_MODE_50_HZ_CTRL_REG1)
 126              		.loc 1 209 0
 127 0070 9DF80731 		ldrb	r3, [sp, #263]	@ zero_extendqisi2
 128 0074 4F2B     		cmp	r3, #79
 129 0076 14D0     		beq	.L4
 210:main.c        ****     {
 211:main.c        ****         ctrl_reg1 = LIS3DH_LP_MODE_50_HZ_CTRL_REG1;
 130              		.loc 1 211 0
 131 0078 4F22     		movs	r2, #79
ARM GAS  C:\Users\Susanna\AppData\Local\Temp\ccpgn79U.s 			page 7


 132 007a 8DF80721 		strb	r2, [sp, #263]
 212:main.c        ****         error = I2C_Peripheral_WriteRegister(LIS3DH_DEVICE_ADDRESS,
 133              		.loc 1 212 0
 134 007e 2021     		movs	r1, #32
 135 0080 1820     		movs	r0, #24
 136 0082 FFF7FEFF 		bl	I2C_Peripheral_WriteRegister
 137              	.LVL18:
 213:main.c        ****                                              LIS3DH_CTRL_REG1,
 214:main.c        ****                                              ctrl_reg1);  
 215:main.c        ****         
 216:main.c        ****         if (error == NO_ERROR)
 138              		.loc 1 216 0
 139 0086 48B9     		cbnz	r0, .L5
 217:main.c        ****         {
 218:main.c        ****             sprintf(message, "CONTROL REGISTER 1 successfully written as: 0x%02X\r\n", ctrl_reg1);
 140              		.loc 1 218 0
 141 0088 9DF80721 		ldrb	r2, [sp, #263]	@ zero_extendqisi2
 142 008c 9149     		ldr	r1, .L56+28
 143 008e 5BA8     		add	r0, sp, #364
 144              	.LVL19:
 145 0090 FFF7FEFF 		bl	sprintf
 146              	.LVL20:
 219:main.c        ****             UART_PutString(message); 
 147              		.loc 1 219 0
 148 0094 5BA8     		add	r0, sp, #364
 149 0096 FFF7FEFF 		bl	UART_PutString
 150              	.LVL21:
 151 009a 02E0     		b	.L4
 152              	.LVL22:
 153              	.L5:
 220:main.c        ****         }
 221:main.c        ****         else
 222:main.c        ****         {
 223:main.c        ****             UART_PutString("Error occurred during I2C comm to set control register 1\r\n");   
 154              		.loc 1 223 0
 155 009c 8E48     		ldr	r0, .L56+32
 156              	.LVL23:
 157 009e FFF7FEFF 		bl	UART_PutString
 158              	.LVL24:
 159              	.L4:
 224:main.c        ****         }
 225:main.c        ****     }
 226:main.c        ****     
 227:main.c        ****     // CONTROL REGISTER 3
 228:main.c        ****     uint8_t ctrl_reg3; 
 229:main.c        ****     error = I2C_Peripheral_ReadRegister(LIS3DH_DEVICE_ADDRESS,
 160              		.loc 1 229 0
 161 00a2 0DF58372 		add	r2, sp, #262
 162 00a6 2221     		movs	r1, #34
 163 00a8 1820     		movs	r0, #24
 164 00aa FFF7FEFF 		bl	I2C_Peripheral_ReadRegister
 165              	.LVL25:
 230:main.c        ****                                         LIS3DH_CTRL_REG3,
 231:main.c        ****                                         &ctrl_reg3);
 232:main.c        ****      if (error == NO_ERROR)
 166              		.loc 1 232 0
 167 00ae 48B9     		cbnz	r0, .L6
ARM GAS  C:\Users\Susanna\AppData\Local\Temp\ccpgn79U.s 			page 8


 233:main.c        ****     {
 234:main.c        ****         sprintf(message, "CONTROL REGISTER 3: 0x%02X\r\n", ctrl_reg3);
 168              		.loc 1 234 0
 169 00b0 9DF80621 		ldrb	r2, [sp, #262]	@ zero_extendqisi2
 170 00b4 8949     		ldr	r1, .L56+36
 171 00b6 5BA8     		add	r0, sp, #364
 172              	.LVL26:
 173 00b8 FFF7FEFF 		bl	sprintf
 174              	.LVL27:
 235:main.c        ****         UART_PutString(message); 
 175              		.loc 1 235 0
 176 00bc 5BA8     		add	r0, sp, #364
 177 00be FFF7FEFF 		bl	UART_PutString
 178              	.LVL28:
 179 00c2 02E0     		b	.L7
 180              	.LVL29:
 181              	.L6:
 236:main.c        ****     }
 237:main.c        ****     else
 238:main.c        ****     {
 239:main.c        ****         UART_PutString("Error occurred during I2C comm to read control register 3\r\n");   
 182              		.loc 1 239 0
 183 00c4 8648     		ldr	r0, .L56+40
 184              	.LVL30:
 185 00c6 FFF7FEFF 		bl	UART_PutString
 186              	.LVL31:
 187              	.L7:
 240:main.c        ****     }
 241:main.c        ****     
 242:main.c        **** 
 243:main.c        ****     if (ctrl_reg3 != LIS3DH_OVERRUN_INT_CTRL_REG3)
 188              		.loc 1 243 0
 189 00ca 9DF80631 		ldrb	r3, [sp, #262]	@ zero_extendqisi2
 190 00ce 022B     		cmp	r3, #2
 191 00d0 14D0     		beq	.L8
 244:main.c        ****     {
 245:main.c        ****         ctrl_reg3 = LIS3DH_OVERRUN_INT_CTRL_REG3;
 192              		.loc 1 245 0
 193 00d2 0222     		movs	r2, #2
 194 00d4 8DF80621 		strb	r2, [sp, #262]
 246:main.c        ****         error = I2C_Peripheral_WriteRegister(LIS3DH_DEVICE_ADDRESS,
 195              		.loc 1 246 0
 196 00d8 2221     		movs	r1, #34
 197 00da 1820     		movs	r0, #24
 198 00dc FFF7FEFF 		bl	I2C_Peripheral_WriteRegister
 199              	.LVL32:
 247:main.c        ****                                              LIS3DH_CTRL_REG3,
 248:main.c        ****                                              ctrl_reg3);  
 249:main.c        ****         
 250:main.c        ****         if (error == NO_ERROR)
 200              		.loc 1 250 0
 201 00e0 48B9     		cbnz	r0, .L9
 251:main.c        ****         {
 252:main.c        ****             sprintf(message, "CONTROL REGISTER 3 successfully written as: 0x%02X\r\n", ctrl_reg3);
 202              		.loc 1 252 0
 203 00e2 9DF80621 		ldrb	r2, [sp, #262]	@ zero_extendqisi2
 204 00e6 7F49     		ldr	r1, .L56+44
ARM GAS  C:\Users\Susanna\AppData\Local\Temp\ccpgn79U.s 			page 9


 205 00e8 5BA8     		add	r0, sp, #364
 206              	.LVL33:
 207 00ea FFF7FEFF 		bl	sprintf
 208              	.LVL34:
 253:main.c        ****             UART_PutString(message); 
 209              		.loc 1 253 0
 210 00ee 5BA8     		add	r0, sp, #364
 211 00f0 FFF7FEFF 		bl	UART_PutString
 212              	.LVL35:
 213 00f4 02E0     		b	.L8
 214              	.LVL36:
 215              	.L9:
 254:main.c        ****         }
 255:main.c        ****         else
 256:main.c        ****         {
 257:main.c        ****             UART_PutString("Error occurred during I2C comm to set control register 3\r\n");   
 216              		.loc 1 257 0
 217 00f6 7C48     		ldr	r0, .L56+48
 218              	.LVL37:
 219 00f8 FFF7FEFF 		bl	UART_PutString
 220              	.LVL38:
 221              	.L8:
 258:main.c        ****         }
 259:main.c        ****     }
 260:main.c        ****     
 261:main.c        ****     //CONTROL REGISTER 5  
 262:main.c        ****     uint8_t ctrl_reg5;
 263:main.c        ****     error = I2C_Peripheral_ReadRegister(LIS3DH_DEVICE_ADDRESS,
 222              		.loc 1 263 0
 223 00fc 0DF20512 		addw	r2, sp, #261
 224 0100 2421     		movs	r1, #36
 225 0102 1820     		movs	r0, #24
 226 0104 FFF7FEFF 		bl	I2C_Peripheral_ReadRegister
 227              	.LVL39:
 264:main.c        ****                                         LIS3DH_CTRL_REG5,
 265:main.c        ****                                         &ctrl_reg5); 
 266:main.c        ****      if (error == NO_ERROR)
 228              		.loc 1 266 0
 229 0108 48B9     		cbnz	r0, .L10
 267:main.c        ****     {
 268:main.c        ****         sprintf(message, "CONTROL REGISTER 5: 0x%02X\r\n", ctrl_reg5);
 230              		.loc 1 268 0
 231 010a 9DF80521 		ldrb	r2, [sp, #261]	@ zero_extendqisi2
 232 010e 7749     		ldr	r1, .L56+52
 233 0110 5BA8     		add	r0, sp, #364
 234              	.LVL40:
 235 0112 FFF7FEFF 		bl	sprintf
 236              	.LVL41:
 269:main.c        ****         UART_PutString(message); 
 237              		.loc 1 269 0
 238 0116 5BA8     		add	r0, sp, #364
 239 0118 FFF7FEFF 		bl	UART_PutString
 240              	.LVL42:
 241 011c 02E0     		b	.L11
 242              	.LVL43:
 243              	.L10:
 270:main.c        ****     }
ARM GAS  C:\Users\Susanna\AppData\Local\Temp\ccpgn79U.s 			page 10


 271:main.c        ****     else
 272:main.c        ****     {
 273:main.c        ****         UART_PutString("Error occurred during I2C comm to read control register 5\r\n");   
 244              		.loc 1 273 0
 245 011e 7448     		ldr	r0, .L56+56
 246              	.LVL44:
 247 0120 FFF7FEFF 		bl	UART_PutString
 248              	.LVL45:
 249              	.L11:
 274:main.c        ****     }
 275:main.c        ****     
 276:main.c        ****     
 277:main.c        ****     if (ctrl_reg5 != LIS3DH_FIFO_ENABLED)
 250              		.loc 1 277 0
 251 0124 9DF80531 		ldrb	r3, [sp, #261]	@ zero_extendqisi2
 252 0128 422B     		cmp	r3, #66
 253 012a 14D0     		beq	.L12
 278:main.c        ****     {
 279:main.c        ****         ctrl_reg5 = LIS3DH_FIFO_ENABLED;
 254              		.loc 1 279 0
 255 012c 4222     		movs	r2, #66
 256 012e 8DF80521 		strb	r2, [sp, #261]
 280:main.c        ****         error = I2C_Peripheral_WriteRegister(LIS3DH_DEVICE_ADDRESS,
 257              		.loc 1 280 0
 258 0132 2421     		movs	r1, #36
 259 0134 1820     		movs	r0, #24
 260 0136 FFF7FEFF 		bl	I2C_Peripheral_WriteRegister
 261              	.LVL46:
 281:main.c        ****                                          LIS3DH_CTRL_REG5,
 282:main.c        ****                                          ctrl_reg5);
 283:main.c        ****         if (error == NO_ERROR)
 262              		.loc 1 283 0
 263 013a 48B9     		cbnz	r0, .L13
 284:main.c        ****         {
 285:main.c        ****             sprintf(message, "CONTROL REGISTER 5 successfully written as: 0x%02X\r\n", ctrl_reg5);
 264              		.loc 1 285 0
 265 013c 9DF80521 		ldrb	r2, [sp, #261]	@ zero_extendqisi2
 266 0140 6C49     		ldr	r1, .L56+60
 267 0142 5BA8     		add	r0, sp, #364
 268              	.LVL47:
 269 0144 FFF7FEFF 		bl	sprintf
 270              	.LVL48:
 286:main.c        ****             UART_PutString(message); 
 271              		.loc 1 286 0
 272 0148 5BA8     		add	r0, sp, #364
 273 014a FFF7FEFF 		bl	UART_PutString
 274              	.LVL49:
 275 014e 02E0     		b	.L12
 276              	.LVL50:
 277              	.L13:
 287:main.c        ****         }
 288:main.c        ****         else
 289:main.c        ****         {
 290:main.c        ****             UART_PutString("Error occurred during I2C comm to set control register 5\r\n");   
 278              		.loc 1 290 0
 279 0150 6948     		ldr	r0, .L56+64
 280              	.LVL51:
ARM GAS  C:\Users\Susanna\AppData\Local\Temp\ccpgn79U.s 			page 11


 281 0152 FFF7FEFF 		bl	UART_PutString
 282              	.LVL52:
 283              	.L12:
 291:main.c        ****         }
 292:main.c        ****     }
 293:main.c        ****     
 294:main.c        ****     //CONTROL REGISTER 6  
 295:main.c        ****     uint8_t ctrl_reg6;
 296:main.c        ****     error = I2C_Peripheral_ReadRegister(LIS3DH_DEVICE_ADDRESS,
 284              		.loc 1 296 0
 285 0156 41AA     		add	r2, sp, #260
 286 0158 2521     		movs	r1, #37
 287 015a 1820     		movs	r0, #24
 288 015c FFF7FEFF 		bl	I2C_Peripheral_ReadRegister
 289              	.LVL53:
 297:main.c        ****                                         LIS3DH_CTRL_REG6,
 298:main.c        ****                                         &ctrl_reg6); 
 299:main.c        ****      if (error == NO_ERROR)
 290              		.loc 1 299 0
 291 0160 48B9     		cbnz	r0, .L14
 300:main.c        ****     {
 301:main.c        ****         sprintf(message, "CONTROL REGISTER 6: 0x%02X\r\n", ctrl_reg6);
 292              		.loc 1 301 0
 293 0162 9DF80421 		ldrb	r2, [sp, #260]	@ zero_extendqisi2
 294 0166 6549     		ldr	r1, .L56+68
 295 0168 5BA8     		add	r0, sp, #364
 296              	.LVL54:
 297 016a FFF7FEFF 		bl	sprintf
 298              	.LVL55:
 302:main.c        ****         UART_PutString(message); 
 299              		.loc 1 302 0
 300 016e 5BA8     		add	r0, sp, #364
 301 0170 FFF7FEFF 		bl	UART_PutString
 302              	.LVL56:
 303 0174 02E0     		b	.L15
 304              	.LVL57:
 305              	.L14:
 303:main.c        ****     }
 304:main.c        ****     else
 305:main.c        ****     {
 306:main.c        ****         UART_PutString("Error occurred during I2C comm to read control register 6\r\n");   
 306              		.loc 1 306 0
 307 0176 6248     		ldr	r0, .L56+72
 308              	.LVL58:
 309 0178 FFF7FEFF 		bl	UART_PutString
 310              	.LVL59:
 311              	.L15:
 307:main.c        ****     }
 308:main.c        ****     
 309:main.c        ****     
 310:main.c        ****     if (ctrl_reg6 != LIS3DH_I2_IA2)
 312              		.loc 1 310 0
 313 017c 9DF80431 		ldrb	r3, [sp, #260]	@ zero_extendqisi2
 314 0180 202B     		cmp	r3, #32
 315 0182 14D0     		beq	.L16
 311:main.c        ****     {
 312:main.c        ****         ctrl_reg6 = LIS3DH_I2_IA2;
ARM GAS  C:\Users\Susanna\AppData\Local\Temp\ccpgn79U.s 			page 12


 316              		.loc 1 312 0
 317 0184 2022     		movs	r2, #32
 318 0186 8DF80421 		strb	r2, [sp, #260]
 313:main.c        ****         error = I2C_Peripheral_WriteRegister(LIS3DH_DEVICE_ADDRESS,
 319              		.loc 1 313 0
 320 018a 2521     		movs	r1, #37
 321 018c 1820     		movs	r0, #24
 322 018e FFF7FEFF 		bl	I2C_Peripheral_WriteRegister
 323              	.LVL60:
 314:main.c        ****                                          LIS3DH_CTRL_REG6,
 315:main.c        ****                                          ctrl_reg6);
 316:main.c        ****         if (error == NO_ERROR)
 324              		.loc 1 316 0
 325 0192 48B9     		cbnz	r0, .L17
 317:main.c        ****         {
 318:main.c        ****             sprintf(message, "CONTROL REGISTER 6 successfully written as: 0x%02X\r\n", ctrl_reg6);
 326              		.loc 1 318 0
 327 0194 9DF80421 		ldrb	r2, [sp, #260]	@ zero_extendqisi2
 328 0198 5A49     		ldr	r1, .L56+76
 329 019a 5BA8     		add	r0, sp, #364
 330              	.LVL61:
 331 019c FFF7FEFF 		bl	sprintf
 332              	.LVL62:
 319:main.c        ****             UART_PutString(message); 
 333              		.loc 1 319 0
 334 01a0 5BA8     		add	r0, sp, #364
 335 01a2 FFF7FEFF 		bl	UART_PutString
 336              	.LVL63:
 337 01a6 02E0     		b	.L16
 338              	.LVL64:
 339              	.L17:
 320:main.c        ****         }
 321:main.c        ****         else
 322:main.c        ****         {
 323:main.c        ****             UART_PutString("Error occurred during I2C comm to set control register 6\r\n");   
 340              		.loc 1 323 0
 341 01a8 5748     		ldr	r0, .L56+80
 342              	.LVL65:
 343 01aa FFF7FEFF 		bl	UART_PutString
 344              	.LVL66:
 345              	.L16:
 324:main.c        ****         }
 325:main.c        ****     }
 326:main.c        ****     
 327:main.c        ****     //FIFO CONTROL REGISTER
 328:main.c        ****     uint8_t fifo_ctrl_reg;
 329:main.c        ****     error = I2C_Peripheral_ReadRegister(LIS3DH_DEVICE_ADDRESS,
 346              		.loc 1 329 0
 347 01ae 0DF20312 		addw	r2, sp, #259
 348 01b2 2E21     		movs	r1, #46
 349 01b4 1820     		movs	r0, #24
 350 01b6 FFF7FEFF 		bl	I2C_Peripheral_ReadRegister
 351              	.LVL67:
 330:main.c        ****                                         LIS3DH_FIFO_CTRL_REG,
 331:main.c        ****                                         &fifo_ctrl_reg); 
 332:main.c        ****      if (error == NO_ERROR)
 352              		.loc 1 332 0
ARM GAS  C:\Users\Susanna\AppData\Local\Temp\ccpgn79U.s 			page 13


 353 01ba 48B9     		cbnz	r0, .L18
 333:main.c        ****     {
 334:main.c        ****         sprintf(message, "FIFO CONTROL REGISTER: 0x%02X\r\n", fifo_ctrl_reg);
 354              		.loc 1 334 0
 355 01bc 9DF80321 		ldrb	r2, [sp, #259]	@ zero_extendqisi2
 356 01c0 5249     		ldr	r1, .L56+84
 357 01c2 5BA8     		add	r0, sp, #364
 358              	.LVL68:
 359 01c4 FFF7FEFF 		bl	sprintf
 360              	.LVL69:
 335:main.c        ****         UART_PutString(message); 
 361              		.loc 1 335 0
 362 01c8 5BA8     		add	r0, sp, #364
 363 01ca FFF7FEFF 		bl	UART_PutString
 364              	.LVL70:
 365 01ce 02E0     		b	.L19
 366              	.LVL71:
 367              	.L18:
 336:main.c        ****     }
 337:main.c        ****     else
 338:main.c        ****     {
 339:main.c        ****         UART_PutString("Error occurred during I2C comm to read FIFO control register \r\n");   
 368              		.loc 1 339 0
 369 01d0 4F48     		ldr	r0, .L56+88
 370              	.LVL72:
 371 01d2 FFF7FEFF 		bl	UART_PutString
 372              	.LVL73:
 373              	.L19:
 340:main.c        ****     }
 341:main.c        ****     
 342:main.c        ****     
 343:main.c        ****     if (fifo_ctrl_reg != LIS3DH_FIFO_MODE)
 374              		.loc 1 343 0
 375 01d6 9DF80331 		ldrb	r3, [sp, #259]	@ zero_extendqisi2
 376 01da 402B     		cmp	r3, #64
 377 01dc 14D0     		beq	.L20
 344:main.c        ****     {
 345:main.c        ****         fifo_ctrl_reg = LIS3DH_FIFO_MODE;
 378              		.loc 1 345 0
 379 01de 4022     		movs	r2, #64
 380 01e0 8DF80321 		strb	r2, [sp, #259]
 346:main.c        ****         error = I2C_Peripheral_WriteRegister(LIS3DH_DEVICE_ADDRESS,
 381              		.loc 1 346 0
 382 01e4 2E21     		movs	r1, #46
 383 01e6 1820     		movs	r0, #24
 384 01e8 FFF7FEFF 		bl	I2C_Peripheral_WriteRegister
 385              	.LVL74:
 347:main.c        ****                                          LIS3DH_FIFO_CTRL_REG,
 348:main.c        ****                                          fifo_ctrl_reg);
 349:main.c        ****         if (error == NO_ERROR)
 386              		.loc 1 349 0
 387 01ec 48B9     		cbnz	r0, .L21
 350:main.c        ****         {
 351:main.c        ****             sprintf(message, "FIFO CONTROL REGISTER successfully written as: 0x%02X\r\n", fifo_ctrl
 388              		.loc 1 351 0
 389 01ee 9DF80321 		ldrb	r2, [sp, #259]	@ zero_extendqisi2
 390 01f2 4849     		ldr	r1, .L56+92
ARM GAS  C:\Users\Susanna\AppData\Local\Temp\ccpgn79U.s 			page 14


 391 01f4 5BA8     		add	r0, sp, #364
 392              	.LVL75:
 393 01f6 FFF7FEFF 		bl	sprintf
 394              	.LVL76:
 352:main.c        ****             UART_PutString(message); 
 395              		.loc 1 352 0
 396 01fa 5BA8     		add	r0, sp, #364
 397 01fc FFF7FEFF 		bl	UART_PutString
 398              	.LVL77:
 399 0200 02E0     		b	.L20
 400              	.LVL78:
 401              	.L21:
 353:main.c        ****         }
 354:main.c        ****         else
 355:main.c        ****         {
 356:main.c        ****             UART_PutString("Error occurred during I2C comm to set FIFO control register \r\n");   
 402              		.loc 1 356 0
 403 0202 4548     		ldr	r0, .L56+96
 404              	.LVL79:
 405 0204 FFF7FEFF 		bl	UART_PutString
 406              	.LVL80:
 407              	.L20:
 357:main.c        ****         }
 358:main.c        ****     }
 359:main.c        ****     
 360:main.c        **** 	//INT2 CONFIGURATION REGISTER
 361:main.c        ****     uint8_t int2__cfg_reg;
 362:main.c        ****     error = I2C_Peripheral_ReadRegister(LIS3DH_DEVICE_ADDRESS,
 408              		.loc 1 362 0
 409 0208 0DF58172 		add	r2, sp, #258
 410 020c 3421     		movs	r1, #52
 411 020e 1820     		movs	r0, #24
 412 0210 FFF7FEFF 		bl	I2C_Peripheral_ReadRegister
 413              	.LVL81:
 363:main.c        ****                                         LIS3DH_INT2_CFG,
 364:main.c        ****                                         &int2__cfg_reg); 
 365:main.c        ****      if (error == NO_ERROR)
 414              		.loc 1 365 0
 415 0214 48B9     		cbnz	r0, .L22
 366:main.c        ****     {
 367:main.c        ****         sprintf(message, "INT2 CONFIGURATION REGISTER: 0x%02X\r\n", int2__cfg_reg);
 416              		.loc 1 367 0
 417 0216 9DF80221 		ldrb	r2, [sp, #258]	@ zero_extendqisi2
 418 021a 4049     		ldr	r1, .L56+100
 419 021c 5BA8     		add	r0, sp, #364
 420              	.LVL82:
 421 021e FFF7FEFF 		bl	sprintf
 422              	.LVL83:
 368:main.c        ****         UART_PutString(message); 
 423              		.loc 1 368 0
 424 0222 5BA8     		add	r0, sp, #364
 425 0224 FFF7FEFF 		bl	UART_PutString
 426              	.LVL84:
 427 0228 02E0     		b	.L23
 428              	.LVL85:
 429              	.L22:
 369:main.c        ****     }
ARM GAS  C:\Users\Susanna\AppData\Local\Temp\ccpgn79U.s 			page 15


 370:main.c        ****     else
 371:main.c        ****     {
 372:main.c        ****         UART_PutString("Error occurred during I2C comm to read INT2 CONFIGURATION REGISTER \r\n"); 
 430              		.loc 1 372 0
 431 022a 3D48     		ldr	r0, .L56+104
 432              	.LVL86:
 433 022c FFF7FEFF 		bl	UART_PutString
 434              	.LVL87:
 435              	.L23:
 373:main.c        ****     }
 374:main.c        ****     
 375:main.c        ****     
 376:main.c        ****     if (int2__cfg_reg != LIS3DH_INT2_HIGH_EVENT)
 436              		.loc 1 376 0
 437 0230 9DF80231 		ldrb	r3, [sp, #258]	@ zero_extendqisi2
 438 0234 2A2B     		cmp	r3, #42
 439 0236 14D0     		beq	.L24
 377:main.c        ****     {
 378:main.c        ****         int2__cfg_reg = LIS3DH_INT2_HIGH_EVENT;
 440              		.loc 1 378 0
 441 0238 2A22     		movs	r2, #42
 442 023a 8DF80221 		strb	r2, [sp, #258]
 379:main.c        ****         error = I2C_Peripheral_WriteRegister(LIS3DH_DEVICE_ADDRESS,
 443              		.loc 1 379 0
 444 023e 3421     		movs	r1, #52
 445 0240 1820     		movs	r0, #24
 446 0242 FFF7FEFF 		bl	I2C_Peripheral_WriteRegister
 447              	.LVL88:
 380:main.c        ****                                          LIS3DH_INT2_CFG,
 381:main.c        ****                                          int2__cfg_reg);
 382:main.c        ****         if (error == NO_ERROR)
 448              		.loc 1 382 0
 449 0246 48B9     		cbnz	r0, .L25
 383:main.c        ****         {
 384:main.c        ****             sprintf(message, "INT2 CONFIGURATION REGISTER successfully written as: 0x%02X\r\n", int
 450              		.loc 1 384 0
 451 0248 9DF80221 		ldrb	r2, [sp, #258]	@ zero_extendqisi2
 452 024c 3549     		ldr	r1, .L56+108
 453 024e 5BA8     		add	r0, sp, #364
 454              	.LVL89:
 455 0250 FFF7FEFF 		bl	sprintf
 456              	.LVL90:
 385:main.c        ****             UART_PutString(message); 
 457              		.loc 1 385 0
 458 0254 5BA8     		add	r0, sp, #364
 459 0256 FFF7FEFF 		bl	UART_PutString
 460              	.LVL91:
 461 025a 02E0     		b	.L24
 462              	.LVL92:
 463              	.L25:
 386:main.c        ****         }
 387:main.c        ****         else
 388:main.c        ****         {
 389:main.c        ****             UART_PutString("Error occurred during I2C comm to set INT2 CONFIGURATION REGISTER \r\n"
 464              		.loc 1 389 0
 465 025c 3248     		ldr	r0, .L56+112
 466              	.LVL93:
ARM GAS  C:\Users\Susanna\AppData\Local\Temp\ccpgn79U.s 			page 16


 467 025e FFF7FEFF 		bl	UART_PutString
 468              	.LVL94:
 469              	.L24:
 390:main.c        ****         }
 391:main.c        ****     }
 392:main.c        ****     
 393:main.c        ****     
 394:main.c        ****     //INT2 DURATION REGISTER
 395:main.c        ****     uint8_t int2_duration_reg;
 396:main.c        ****     error = I2C_Peripheral_ReadRegister(LIS3DH_DEVICE_ADDRESS,
 470              		.loc 1 396 0
 471 0262 0DF20112 		addw	r2, sp, #257
 472 0266 3721     		movs	r1, #55
 473 0268 1820     		movs	r0, #24
 474 026a FFF7FEFF 		bl	I2C_Peripheral_ReadRegister
 475              	.LVL95:
 397:main.c        ****                                         LIS3DH_INT2_DURATION,
 398:main.c        ****                                         &int2_duration_reg); 
 399:main.c        ****      if (error == NO_ERROR)
 476              		.loc 1 399 0
 477 026e 48B9     		cbnz	r0, .L26
 400:main.c        ****     {
 401:main.c        ****         sprintf(message, "INT2 DURATION REGISTER: 0x%02X\r\n", int2_duration_reg);
 478              		.loc 1 401 0
 479 0270 9DF80121 		ldrb	r2, [sp, #257]	@ zero_extendqisi2
 480 0274 2D49     		ldr	r1, .L56+116
 481 0276 5BA8     		add	r0, sp, #364
 482              	.LVL96:
 483 0278 FFF7FEFF 		bl	sprintf
 484              	.LVL97:
 402:main.c        ****         UART_PutString(message); 
 485              		.loc 1 402 0
 486 027c 5BA8     		add	r0, sp, #364
 487 027e FFF7FEFF 		bl	UART_PutString
 488              	.LVL98:
 489 0282 02E0     		b	.L27
 490              	.LVL99:
 491              	.L26:
 403:main.c        ****     }
 404:main.c        ****     else
 405:main.c        ****     {
 406:main.c        ****         UART_PutString("Error occurred during I2C comm to read INT2 DURATION REGISTER \r\n");   
 492              		.loc 1 406 0
 493 0284 2A48     		ldr	r0, .L56+120
 494              	.LVL100:
 495 0286 FFF7FEFF 		bl	UART_PutString
 496              	.LVL101:
 497              	.L27:
 407:main.c        ****     }
 408:main.c        ****     
 409:main.c        ****     
 410:main.c        ****     if (int2_duration_reg != LIS3DH_DURATION_EVENT)
 498              		.loc 1 410 0
 499 028a 9DF80131 		ldrb	r3, [sp, #257]	@ zero_extendqisi2
 500 028e 032B     		cmp	r3, #3
 501 0290 55D0     		beq	.L28
 411:main.c        ****     {
ARM GAS  C:\Users\Susanna\AppData\Local\Temp\ccpgn79U.s 			page 17


 412:main.c        ****         int2_duration_reg = LIS3DH_DURATION_EVENT;
 502              		.loc 1 412 0
 503 0292 0322     		movs	r2, #3
 504 0294 8DF80121 		strb	r2, [sp, #257]
 413:main.c        ****         error = I2C_Peripheral_WriteRegister(LIS3DH_DEVICE_ADDRESS,
 505              		.loc 1 413 0
 506 0298 3721     		movs	r1, #55
 507 029a 1820     		movs	r0, #24
 508 029c FFF7FEFF 		bl	I2C_Peripheral_WriteRegister
 509              	.LVL102:
 414:main.c        ****                                          LIS3DH_INT2_DURATION,
 415:main.c        ****                                          int2_duration_reg);
 416:main.c        ****         if (error == NO_ERROR)
 510              		.loc 1 416 0
 511 02a0 0028     		cmp	r0, #0
 512 02a2 49D1     		bne	.L29
 417:main.c        ****         {
 418:main.c        ****             sprintf(message, "INT2 DURATION REGISTER successfully written as: 0x%02X\r\n", int2_dur
 513              		.loc 1 418 0
 514 02a4 9DF80121 		ldrb	r2, [sp, #257]	@ zero_extendqisi2
 515 02a8 2249     		ldr	r1, .L56+124
 516 02aa 5BA8     		add	r0, sp, #364
 517              	.LVL103:
 518 02ac FFF7FEFF 		bl	sprintf
 519              	.LVL104:
 419:main.c        ****             UART_PutString(message); 
 520              		.loc 1 419 0
 521 02b0 5BA8     		add	r0, sp, #364
 522 02b2 FFF7FEFF 		bl	UART_PutString
 523              	.LVL105:
 524 02b6 42E0     		b	.L28
 525              	.L57:
 526              		.align	2
 527              	.L56:
 528 02b8 00000000 		.word	Switch_ISR
 529 02bc 00000000 		.word	TIME_ISR
 530 02c0 00000000 		.word	button_pressed
 531 02c4 00000000 		.word	click_count
 532 02c8 00000000 		.word	time_passed
 533 02cc 00000000 		.word	.LC0
 534 02d0 20000000 		.word	.LC1
 535 02d4 5C000000 		.word	.LC2
 536 02d8 94000000 		.word	.LC3
 537 02dc D0000000 		.word	.LC4
 538 02e0 F0000000 		.word	.LC5
 539 02e4 2C010000 		.word	.LC6
 540 02e8 64010000 		.word	.LC7
 541 02ec A0010000 		.word	.LC8
 542 02f0 C0010000 		.word	.LC9
 543 02f4 FC010000 		.word	.LC10
 544 02f8 34020000 		.word	.LC11
 545 02fc 70020000 		.word	.LC12
 546 0300 90020000 		.word	.LC13
 547 0304 CC020000 		.word	.LC14
 548 0308 04030000 		.word	.LC15
 549 030c 40030000 		.word	.LC16
 550 0310 60030000 		.word	.LC17
ARM GAS  C:\Users\Susanna\AppData\Local\Temp\ccpgn79U.s 			page 18


 551 0314 A0030000 		.word	.LC18
 552 0318 D8030000 		.word	.LC19
 553 031c 18040000 		.word	.LC20
 554 0320 40040000 		.word	.LC21
 555 0324 88040000 		.word	.LC22
 556 0328 C8040000 		.word	.LC23
 557 032c 10050000 		.word	.LC24
 558 0330 34050000 		.word	.LC25
 559 0334 78050000 		.word	.LC26
 560              	.LVL106:
 561              	.L29:
 420:main.c        ****         }
 421:main.c        ****         else
 422:main.c        ****         {
 423:main.c        ****             UART_PutString("Error occurred during I2C comm to set INT2 DURATION REGISTER \r\n");   
 562              		.loc 1 423 0
 563 0338 C148     		ldr	r0, .L58
 564              	.LVL107:
 565 033a FFF7FEFF 		bl	UART_PutString
 566              	.LVL108:
 567              	.L28:
 424:main.c        ****         }
 425:main.c        ****     }
 426:main.c        **** 
 427:main.c        ****     /* ----------------------------------------
 428:main.c        **** 			BRIEF VARIABLES FOR ACQUISITION
 429:main.c        ****             OF ACCEL. OUTPUT 
 430:main.c        **** 		--------------------------------------- */
 431:main.c        ****     
 432:main.c        ****     int16_t X_Out[32];
 433:main.c        ****     int16_t Y_Out[32];
 434:main.c        ****     int16_t Z_Out[32];
 435:main.c        ****     int16_t X_Out_mg[32];
 436:main.c        ****     int16_t Y_Out_mg[32];
 437:main.c        ****     int16_t Z_Out_mg[32];
 438:main.c        ****     uint8_t OutArray[12]; 
 439:main.c        ****     uint8_t AccelerationData[32][6];
 440:main.c        ****     
 441:main.c        ****     #define  HEADER 	0xA0;
 442:main.c        ****     #define  FOOTER 	0xC0;
 443:main.c        ****     
 444:main.c        ****     OutArray[0] = HEADER;
 445:main.c        ****     OutArray[11] = FOOTER;
 446:main.c        ****     
 447:main.c        ****     uint8_t fifo_src_reg;
 448:main.c        ****     uint8_t int2_src_reg;
 449:main.c        ****     uint8_t ctrl_reg4;
 450:main.c        ****     uint8_t int2_ths_reg;
 451:main.c        ****     
 452:main.c        ****     uint8_t i=0;
 453:main.c        ****     uint8_t Parameters_read;
 454:main.c        ****     
 455:main.c        ****     #define N_SAMPLES 6
 456:main.c        ****     #define DATA_BYTES 12
 457:main.c        ****     int16_t Data_read[N_SAMPLES]={0};
 568              		.loc 1 457 0
 569 033e 0020     		movs	r0, #0
ARM GAS  C:\Users\Susanna\AppData\Local\Temp\ccpgn79U.s 			page 19


 570 0340 0C90     		str	r0, [sp, #48]
 571 0342 0D90     		str	r0, [sp, #52]
 572 0344 0E90     		str	r0, [sp, #56]
 573              	.LVL109:
 458:main.c        ****     int16_t data[N_SAMPLES];
 459:main.c        ****     uint8_t nsamples  = 0;
 460:main.c        ****     uint8_t overths_x = 0;
 461:main.c        ****     uint8_t overths_y = 0;
 462:main.c        ****     uint8_t overths_z = 0;
 463:main.c        ****     uint8_t count     = 0;
 464:main.c        ****     
 465:main.c        ****     uint8_t flag;
 466:main.c        ****     uint8_t old_flag;
 467:main.c        ****     
 468:main.c        **** 
 469:main.c        ****     
 470:main.c        ****     /* When the device is turned on the state is STOP and the parameters are read from EEPROM */
 471:main.c        ****     int state=STOP;
 472:main.c        ****     Parameters=EEPROM_readByte(0x0000);
 574              		.loc 1 472 0
 575 0346 FFF7FEFF 		bl	EEPROM_readByte
 576              	.LVL110:
 473:main.c        ****     Parameters=Parameters>>4;
 577              		.loc 1 473 0
 578 034a C0F30710 		ubfx	r0, r0, #4, #8
 579 034e BD4B     		ldr	r3, .L58+4
 580 0350 1870     		strb	r0, [r3]
 474:main.c        ****     if (Parameters==0) 
 581              		.loc 1 474 0
 582 0352 A0B9     		cbnz	r0, .L30
 475:main.c        ****     {
 476:main.c        ****         sensitivity=16;
 583              		.loc 1 476 0
 584 0354 1022     		movs	r2, #16
 585 0356 BC4B     		ldr	r3, .L58+8
 586 0358 1A70     		strb	r2, [r3]
 477:main.c        ****         fullscale_range=2000;
 587              		.loc 1 477 0
 588 035a 4FF4FA62 		mov	r2, #2000
 589 035e BB4B     		ldr	r3, .L58+12
 590 0360 1A80     		strh	r2, [r3]	@ movhi
 478:main.c        ****         confidence_interval=30;
 591              		.loc 1 478 0
 592 0362 1E22     		movs	r2, #30
 593 0364 BA4B     		ldr	r3, .L58+16
 594 0366 1A70     		strb	r2, [r3]
 595              	.LVL111:
 479:main.c        ****         ctrl_reg4 = LIS3DH_CTRL_REG4_2g;
 480:main.c        ****         error = I2C_Peripheral_WriteRegister(LIS3DH_DEVICE_ADDRESS,
 596              		.loc 1 480 0
 597 0368 8022     		movs	r2, #128
 598 036a 2321     		movs	r1, #35
 599 036c 1820     		movs	r0, #24
 600 036e FFF7FEFF 		bl	I2C_Peripheral_WriteRegister
 601              	.LVL112:
 481:main.c        ****                                          LIS3DH_CTRL_REG4,
 482:main.c        ****                                          ctrl_reg4);
ARM GAS  C:\Users\Susanna\AppData\Local\Temp\ccpgn79U.s 			page 20


 483:main.c        ****         
 484:main.c        ****         int2_ths_reg = LIS3DH_THRESHOLD_EVENTS_2g;
 485:main.c        ****         error = I2C_Peripheral_WriteRegister(LIS3DH_DEVICE_ADDRESS,
 602              		.loc 1 485 0
 603 0372 5E22     		movs	r2, #94
 604 0374 3621     		movs	r1, #54
 605 0376 1820     		movs	r0, #24
 606 0378 FFF7FEFF 		bl	I2C_Peripheral_WriteRegister
 607              	.LVL113:
 608 037c 43E0     		b	.L31
 609              	.LVL114:
 610              	.L30:
 486:main.c        ****                                          LIS3DH_INT2_THS,
 487:main.c        ****                                          int2_ths_reg);
 488:main.c        ****     }
 489:main.c        ****     else if (Parameters==1) 
 611              		.loc 1 489 0
 612 037e 0128     		cmp	r0, #1
 613 0380 14D1     		bne	.L32
 490:main.c        ****     {
 491:main.c        ****         sensitivity=32;
 614              		.loc 1 491 0
 615 0382 2022     		movs	r2, #32
 616 0384 B04B     		ldr	r3, .L58+8
 617 0386 1A70     		strb	r2, [r3]
 492:main.c        ****         fullscale_range=4000;
 618              		.loc 1 492 0
 619 0388 4FF47A62 		mov	r2, #4000
 620 038c AF4B     		ldr	r3, .L58+12
 621 038e 1A80     		strh	r2, [r3]	@ movhi
 493:main.c        ****         confidence_interval=30;
 622              		.loc 1 493 0
 623 0390 1E22     		movs	r2, #30
 624 0392 AF4B     		ldr	r3, .L58+16
 625 0394 1A70     		strb	r2, [r3]
 626              	.LVL115:
 494:main.c        ****         ctrl_reg4 = LIS3DH_CTRL_REG4_4g;
 495:main.c        ****         error = I2C_Peripheral_WriteRegister(LIS3DH_DEVICE_ADDRESS,
 627              		.loc 1 495 0
 628 0396 9022     		movs	r2, #144
 629 0398 2321     		movs	r1, #35
 630 039a 1820     		movs	r0, #24
 631 039c FFF7FEFF 		bl	I2C_Peripheral_WriteRegister
 632              	.LVL116:
 496:main.c        ****                                          LIS3DH_CTRL_REG4,
 497:main.c        ****                                          ctrl_reg4);  
 498:main.c        ****         int2_ths_reg = LIS3DH_THRESHOLD_EVENTS_4g;
 499:main.c        ****         error = I2C_Peripheral_WriteRegister(LIS3DH_DEVICE_ADDRESS,
 633              		.loc 1 499 0
 634 03a0 2F22     		movs	r2, #47
 635 03a2 3621     		movs	r1, #54
 636 03a4 1820     		movs	r0, #24
 637 03a6 FFF7FEFF 		bl	I2C_Peripheral_WriteRegister
 638              	.LVL117:
 639 03aa 2CE0     		b	.L31
 640              	.LVL118:
 641              	.L32:
ARM GAS  C:\Users\Susanna\AppData\Local\Temp\ccpgn79U.s 			page 21


 500:main.c        ****                                          LIS3DH_INT2_THS,
 501:main.c        ****                                          int2_ths_reg);
 502:main.c        ****     }
 503:main.c        ****     else if (Parameters==2) 
 642              		.loc 1 503 0
 643 03ac 0228     		cmp	r0, #2
 644 03ae 14D1     		bne	.L33
 504:main.c        ****     {
 505:main.c        ****         sensitivity=64;
 645              		.loc 1 505 0
 646 03b0 4022     		movs	r2, #64
 647 03b2 A54B     		ldr	r3, .L58+8
 648 03b4 1A70     		strb	r2, [r3]
 506:main.c        ****         fullscale_range=8000;
 649              		.loc 1 506 0
 650 03b6 4FF4FA52 		mov	r2, #8000
 651 03ba A44B     		ldr	r3, .L58+12
 652 03bc 1A80     		strh	r2, [r3]	@ movhi
 507:main.c        ****         confidence_interval=40;
 653              		.loc 1 507 0
 654 03be 2822     		movs	r2, #40
 655 03c0 A34B     		ldr	r3, .L58+16
 656 03c2 1A70     		strb	r2, [r3]
 657              	.LVL119:
 508:main.c        ****         ctrl_reg4 = LIS3DH_CTRL_REG4_8g;
 509:main.c        ****         error = I2C_Peripheral_WriteRegister(LIS3DH_DEVICE_ADDRESS,
 658              		.loc 1 509 0
 659 03c4 A022     		movs	r2, #160
 660 03c6 2321     		movs	r1, #35
 661 03c8 1820     		movs	r0, #24
 662 03ca FFF7FEFF 		bl	I2C_Peripheral_WriteRegister
 663              	.LVL120:
 510:main.c        ****                                          LIS3DH_CTRL_REG4,
 511:main.c        ****                                          ctrl_reg4); 
 512:main.c        ****         int2_ths_reg = LIS3DH_THRESHOLD_EVENTS_8g;
 513:main.c        ****         error = I2C_Peripheral_WriteRegister(LIS3DH_DEVICE_ADDRESS,
 664              		.loc 1 513 0
 665 03ce 1822     		movs	r2, #24
 666 03d0 3621     		movs	r1, #54
 667 03d2 1046     		mov	r0, r2
 668 03d4 FFF7FEFF 		bl	I2C_Peripheral_WriteRegister
 669              	.LVL121:
 670 03d8 15E0     		b	.L31
 671              	.LVL122:
 672              	.L33:
 514:main.c        ****                                          LIS3DH_INT2_THS,
 515:main.c        ****                                          int2_ths_reg);
 516:main.c        ****     }
 517:main.c        ****     else if (Parameters==3)
 673              		.loc 1 517 0
 674 03da 0328     		cmp	r0, #3
 675 03dc 13D1     		bne	.L31
 518:main.c        ****     {
 519:main.c        ****         sensitivity=192;
 676              		.loc 1 519 0
 677 03de C022     		movs	r2, #192
 678 03e0 994B     		ldr	r3, .L58+8
ARM GAS  C:\Users\Susanna\AppData\Local\Temp\ccpgn79U.s 			page 22


 679 03e2 1A70     		strb	r2, [r3]
 520:main.c        ****         fullscale_range=16000;
 680              		.loc 1 520 0
 681 03e4 4FF47A52 		mov	r2, #16000
 682 03e8 984B     		ldr	r3, .L58+12
 683 03ea 1A80     		strh	r2, [r3]	@ movhi
 521:main.c        ****         confidence_interval=50;
 684              		.loc 1 521 0
 685 03ec 3222     		movs	r2, #50
 686 03ee 984B     		ldr	r3, .L58+16
 687 03f0 1A70     		strb	r2, [r3]
 688              	.LVL123:
 522:main.c        ****         ctrl_reg4 = LIS3DH_CTRL_REG4_16g;
 523:main.c        ****         error = I2C_Peripheral_WriteRegister(LIS3DH_DEVICE_ADDRESS,
 689              		.loc 1 523 0
 690 03f2 B022     		movs	r2, #176
 691 03f4 2321     		movs	r1, #35
 692 03f6 1820     		movs	r0, #24
 693 03f8 FFF7FEFF 		bl	I2C_Peripheral_WriteRegister
 694              	.LVL124:
 524:main.c        ****                                          LIS3DH_CTRL_REG4,
 525:main.c        ****                                          ctrl_reg4);  
 526:main.c        ****         int2_ths_reg = LIS3DH_THRESHOLD_EVENTS_16g;
 527:main.c        ****         error = I2C_Peripheral_WriteRegister(LIS3DH_DEVICE_ADDRESS,
 695              		.loc 1 527 0
 696 03fc 0822     		movs	r2, #8
 697 03fe 3621     		movs	r1, #54
 698 0400 1820     		movs	r0, #24
 699 0402 FFF7FEFF 		bl	I2C_Peripheral_WriteRegister
 700              	.LVL125:
 701              	.L31:
 528:main.c        ****                                          LIS3DH_INT2_THS,
 529:main.c        ****                                          int2_ths_reg);
 530:main.c        ****     }
 531:main.c        ****     Parameters=(Parameters<<4)|state;
 702              		.loc 1 531 0
 703 0406 8F4A     		ldr	r2, .L58+4
 704 0408 1378     		ldrb	r3, [r2]	@ zero_extendqisi2
 705 040a 1B01     		lsls	r3, r3, #4
 706 040c 43F00103 		orr	r3, r3, #1
 707 0410 1370     		strb	r3, [r2]
 471:main.c        ****     Parameters=EEPROM_readByte(0x0000);
 708              		.loc 1 471 0
 709 0412 4FF00109 		mov	r9, #1
 462:main.c        ****     uint8_t count     = 0;
 710              		.loc 1 462 0
 711 0416 0023     		movs	r3, #0
 712 0418 0593     		str	r3, [sp, #20]
 461:main.c        ****     uint8_t overths_z = 0;
 713              		.loc 1 461 0
 714 041a 0693     		str	r3, [sp, #24]
 460:main.c        ****     uint8_t overths_y = 0;
 715              		.loc 1 460 0
 716 041c 9B46     		mov	fp, r3
 459:main.c        ****     uint8_t overths_x = 0;
 717              		.loc 1 459 0
 718 041e 9846     		mov	r8, r3
ARM GAS  C:\Users\Susanna\AppData\Local\Temp\ccpgn79U.s 			page 23


 719              	.LVL126:
 720              	.L34:
 532:main.c        ****     
 533:main.c        ****     for(;;)
 534:main.c        ****     {                       
 535:main.c        ****         if (button_pressed == 1)
 721              		.loc 1 535 0
 722 0420 8C4B     		ldr	r3, .L58+20
 723 0422 1B68     		ldr	r3, [r3]
 724 0424 012B     		cmp	r3, #1
 725 0426 02D1     		bne	.L36
 536:main.c        ****         {
 537:main.c        ****             state = Switch_State();
 726              		.loc 1 537 0
 727 0428 FFF7FEFF 		bl	Switch_State
 728              	.LVL127:
 729 042c 8146     		mov	r9, r0
 730              	.LVL128:
 731              	.L36:
 538:main.c        ****         }
 539:main.c        ****         
 540:main.c        ****         switch (state)
 732              		.loc 1 540 0
 733 042e B9F1010F 		cmp	r9, #1
 734 0432 00F08881 		beq	.L37
 735 0436 B9F1020F 		cmp	r9, #2
 736 043a 00F0AE81 		beq	.L38
 737 043e B9F1000F 		cmp	r9, #0
 738 0442 EDD1     		bne	.L34
 541:main.c        ****         {
 542:main.c        ****             /* START */
 543:main.c        ****             case (0):
 544:main.c        ****             /* Update parameters and state and save in memory */
 545:main.c        ****             Parameters=Parameters>>4;
 739              		.loc 1 545 0
 740 0444 7F4B     		ldr	r3, .L58+4
 741 0446 1978     		ldrb	r1, [r3]	@ zero_extendqisi2
 546:main.c        ****             Parameters=(Parameters<<4)|state;
 742              		.loc 1 546 0
 743 0448 01F0F001 		and	r1, r1, #240
 744 044c 41EA0901 		orr	r1, r1, r9
 745 0450 C9B2     		uxtb	r1, r1
 746 0452 1970     		strb	r1, [r3]
 547:main.c        ****             EEPROM_writeByte(0x0000,Parameters);
 747              		.loc 1 547 0
 748 0454 0020     		movs	r0, #0
 749 0456 FFF7FEFF 		bl	EEPROM_writeByte
 750              	.LVL129:
 548:main.c        ****             EEPROM_waitForWriteComplete();
 751              		.loc 1 548 0
 752 045a FFF7FEFF 		bl	EEPROM_waitForWriteComplete
 753              	.LVL130:
 549:main.c        ****             Parameters_read=EEPROM_readByte(0x0000);
 754              		.loc 1 549 0
 755 045e 0020     		movs	r0, #0
 756 0460 FFF7FEFF 		bl	EEPROM_readByte
 757              	.LVL131:
ARM GAS  C:\Users\Susanna\AppData\Local\Temp\ccpgn79U.s 			page 24


 758 0464 0490     		str	r0, [sp, #16]
 759              	.LVL132:
 550:main.c        ****             
 551:main.c        ****             /*Turn on on-board LED*/
 552:main.c        ****             PWM_ONBOARD_Stop();
 760              		.loc 1 552 0
 761 0466 FFF7FEFF 		bl	PWM_ONBOARD_Stop
 762              	.LVL133:
 553:main.c        ****             PWM_ONBOARD_WriteCompare(255);
 763              		.loc 1 553 0
 764 046a FF20     		movs	r0, #255
 765 046c FFF7FEFF 		bl	PWM_ONBOARD_WriteCompare
 766              	.LVL134:
 554:main.c        ****             PWM_ONBOARD_Start();
 767              		.loc 1 554 0
 768 0470 FFF7FEFF 		bl	PWM_ONBOARD_Start
 769              	.LVL135:
 555:main.c        ****             
 556:main.c        ****             /*Read FIFO_SRC registers to check for overrun event*/
 557:main.c        ****             error = I2C_Peripheral_ReadRegister(LIS3DH_DEVICE_ADDRESS,
 770              		.loc 1 557 0
 771 0474 0DF13F02 		add	r2, sp, #63
 772 0478 2F21     		movs	r1, #47
 773 047a 1820     		movs	r0, #24
 774 047c FFF7FEFF 		bl	I2C_Peripheral_ReadRegister
 775              	.LVL136:
 558:main.c        ****                                          LIS3DH_FIFO_SRC_REG,
 559:main.c        ****                                          &fifo_src_reg); 
 560:main.c        ****             
 561:main.c        **** 			if ((error == NO_ERROR) && ((fifo_src_reg) & OVR_FIFO))
 776              		.loc 1 561 0
 777 0480 0028     		cmp	r0, #0
 778 0482 CDD1     		bne	.L34
 779              		.loc 1 561 0 is_stmt 0 discriminator 1
 780 0484 9DF83F30 		ldrb	r3, [sp, #63]	@ zero_extendqisi2
 781 0488 13F0040F 		tst	r3, #4
 782 048c 40F04081 		bne	.L51
 783 0490 C6E7     		b	.L34
 784              	.LVL137:
 785              	.L48:
 562:main.c        **** 			{
 563:main.c        **** 
 564:main.c        ****                 for(i=0;i<32;i++)
 565:main.c        **** 				{
 566:main.c        **** 					// Read output registers - retrieval accel. data (X,Y,Z axis)
 567:main.c        **** 					error=I2C_Peripheral_ReadRegisterMulti(LIS3DH_DEVICE_ADDRESS,
 568:main.c        **** 													LIS3DH_OUT_X_L, 6,
 569:main.c        **** 													AccelerationData[i]);
 786              		.loc 1 569 0 is_stmt 1
 787 0492 04EB4403 		add	r3, r4, r4, lsl #1
 567:main.c        **** 													LIS3DH_OUT_X_L, 6,
 788              		.loc 1 567 0
 789 0496 10AA     		add	r2, sp, #64
 790 0498 02EB4303 		add	r3, r2, r3, lsl #1
 791 049c 0622     		movs	r2, #6
 792 049e 2821     		movs	r1, #40
 793 04a0 1820     		movs	r0, #24
ARM GAS  C:\Users\Susanna\AppData\Local\Temp\ccpgn79U.s 			page 25


 794 04a2 FFF7FEFF 		bl	I2C_Peripheral_ReadRegisterMulti
 795              	.LVL138:
 570:main.c        **** 					if (error == NO_ERROR)
 796              		.loc 1 570 0
 797 04a6 0028     		cmp	r0, #0
 798 04a8 40F02F81 		bne	.L41
 571:main.c        **** 					{
 572:main.c        ****                 
 573:main.c        **** 						/* Conversion of output data into right-justified 16 bit int (x-axis) */
 574:main.c        **** 						X_Out[i]=(int16)((AccelerationData[i][0] | (AccelerationData[i][1] << 8))) >> 8;
 799              		.loc 1 574 0
 800 04ac 10AB     		add	r3, sp, #64
 801 04ae 6200     		lsls	r2, r4, #1
 802 04b0 1119     		adds	r1, r2, r4
 803 04b2 03EB4107 		add	r7, r3, r1, lsl #1
 804 04b6 13F81110 		ldrb	r1, [r3, r1, lsl #1]	@ zero_extendqisi2
 805 04ba 7D78     		ldrb	r5, [r7, #1]	@ zero_extendqisi2
 806 04bc 41EA0521 		orr	r1, r1, r5, lsl #8
 807 04c0 41F30721 		sbfx	r1, r1, #8, #8
 575:main.c        ****                         // Scaling to mg
 576:main.c        ****                         X_Out_mg[i]=X_Out[i]*sensitivity;
 808              		.loc 1 576 0
 809 04c4 DFF880E1 		ldr	lr, .L58+8
 810 04c8 9EF80050 		ldrb	r5, [lr]	@ zero_extendqisi2
 811 04cc 05FB01F5 		mul	r5, r5, r1
 812 04d0 2DB2     		sxth	r5, r5
 577:main.c        **** 					    // Absolute value
 578:main.c        **** 						X_Out[i]=abs(X_Out_mg[i]);
 813              		.loc 1 578 0
 814 04d2 85EAE570 		eor	r0, r5, r5, asr #31
 815              	.LVL139:
 816 04d6 A0EBE570 		sub	r0, r0, r5, asr #31
 579:main.c        **** 																		
 580:main.c        **** 						
 581:main.c        **** 						/* Conversion of output data into right-justified 16 bit int (y-axis) */
 582:main.c        **** 						Y_Out[i]=(int16)((AccelerationData[i][2] | (AccelerationData[i][3] << 8))) >> 8;
 817              		.loc 1 582 0
 818 04da B978     		ldrb	r1, [r7, #2]	@ zero_extendqisi2
 819 04dc FE78     		ldrb	r6, [r7, #3]	@ zero_extendqisi2
 820 04de 41EA0621 		orr	r1, r1, r6, lsl #8
 821 04e2 41F30721 		sbfx	r1, r1, #8, #8
 583:main.c        **** 						// Scaling to mg
 584:main.c        ****                         Y_Out_mg[i]=Y_Out[i]*sensitivity;
 822              		.loc 1 584 0
 823 04e6 9EF80060 		ldrb	r6, [lr]	@ zero_extendqisi2
 824 04ea 06FB01F6 		mul	r6, r6, r1
 825 04ee 36B2     		sxth	r6, r6
 585:main.c        ****                         // Absolute value
 586:main.c        **** 						Y_Out[i]=abs(Y_Out_mg[i]);
 826              		.loc 1 586 0
 827 04f0 86EAE671 		eor	r1, r6, r6, asr #31
 828 04f4 A1EBE671 		sub	r1, r1, r6, asr #31
 587:main.c        **** 				
 588:main.c        **** 						
 589:main.c        **** 						/* Conversion of output data into right-justified 16 bit int (z-axis) */
 590:main.c        **** 						Z_Out[i]=(int16)(AccelerationData[i][4] | (AccelerationData[i][5] << 8)) >> 8;
 829              		.loc 1 590 0
ARM GAS  C:\Users\Susanna\AppData\Local\Temp\ccpgn79U.s 			page 26


 830 04f8 3F79     		ldrb	r7, [r7, #4]	@ zero_extendqisi2
 831 04fa 2244     		add	r2, r2, r4
 832 04fc 03EB4203 		add	r3, r3, r2, lsl #1
 833 0500 5B79     		ldrb	r3, [r3, #5]	@ zero_extendqisi2
 834 0502 47EA0323 		orr	r3, r7, r3, lsl #8
 835 0506 43F30723 		sbfx	r3, r3, #8, #8
 591:main.c        **** 						// Scaling to mg
 592:main.c        ****                         Z_Out_mg[i]=Z_Out[i]*sensitivity;
 836              		.loc 1 592 0
 837 050a 9EF80070 		ldrb	r7, [lr]	@ zero_extendqisi2
 838 050e 07FB03F7 		mul	r7, r7, r3
 839 0512 3FB2     		sxth	r7, r7
 593:main.c        ****                         // Absolute value
 594:main.c        **** 						Z_Out[i]=abs(Z_Out_mg[i]);
 840              		.loc 1 594 0
 841 0514 87EAE772 		eor	r2, r7, r7, asr #31
 842 0518 A2EBE772 		sub	r2, r2, r7, asr #31
 595:main.c        **** 					
 596:main.c        ****                         
 597:main.c        ****                         
 598:main.c        ****                         /* Set RGB LED blinking frequency */
 599:main.c        ****                         set_PWM(X_Out[i],Y_Out[i],Z_Out[i]);
 843              		.loc 1 599 0
 844 051c 12B2     		sxth	r2, r2
 845 051e 09B2     		sxth	r1, r1
 846 0520 00B2     		sxth	r0, r0
 847 0522 FFF7FEFF 		bl	set_PWM
 848              	.LVL140:
 600:main.c        ****                         
 601:main.c        ****                         
 602:main.c        ****                         /* Verify over threshold events in the 3 axis */
 603:main.c        ****                         
 604:main.c        ****                         error = I2C_Peripheral_ReadRegister(LIS3DH_DEVICE_ADDRESS,
 849              		.loc 1 604 0
 850 0526 0DF13E02 		add	r2, sp, #62
 851 052a 3521     		movs	r1, #53
 852 052c 1820     		movs	r0, #24
 853 052e FFF7FEFF 		bl	I2C_Peripheral_ReadRegister
 854              	.LVL141:
 605:main.c        ****                                              LIS3DH_INT2_SRC,
 606:main.c        ****                                              &int2_src_reg);
 607:main.c        ****                         
 608:main.c        ****                         // Over-threshold in x-axis
 609:main.c        ****                         if ((error == NO_ERROR) && (int2_src_reg & (X_HIGH)))
 855              		.loc 1 609 0
 856 0532 8146     		mov	r9, r0
 857 0534 30B9     		cbnz	r0, .L42
 858              		.loc 1 609 0 is_stmt 0 discriminator 1
 859 0536 9DF83E30 		ldrb	r3, [sp, #62]	@ zero_extendqisi2
 860 053a 13F0420F 		tst	r3, #66
 861 053e 01D0     		beq	.L42
 610:main.c        ****                         {                  
 611:main.c        ****                             // Set the flag overths_x
 612:main.c        ****                             overths_x=1;
 862              		.loc 1 612 0 is_stmt 1
 863 0540 4FF0010B 		mov	fp, #1
 864              	.LVL142:
ARM GAS  C:\Users\Susanna\AppData\Local\Temp\ccpgn79U.s 			page 27


 865              	.L42:
 613:main.c        ****                         }
 614:main.c        ****                         if (overths_x)
 866              		.loc 1 614 0
 867 0544 BBF1000F 		cmp	fp, #0
 868 0548 36D0     		beq	.L43
 615:main.c        ****                         { 
 616:main.c        ****                             // Save 5 samples and timestamp of the event in memory
 617:main.c        ****                             data[nsamples]=X_Out_mg[i];
 869              		.loc 1 617 0
 870 054a 09AB     		add	r3, sp, #36
 871 054c 23F81850 		strh	r5, [r3, r8, lsl #1]	@ movhi
 618:main.c        ****                             nsamples++;
 872              		.loc 1 618 0
 873 0550 08F10108 		add	r8, r8, #1
 874              	.LVL143:
 875 0554 5FFA88F8 		uxtb	r8, r8
 876              	.LVL144:
 619:main.c        ****                             if (nsamples > N_SAMPLES-2)
 877              		.loc 1 619 0
 878 0558 B8F1040F 		cmp	r8, #4
 879 055c 36D9     		bls	.L44
 620:main.c        ****                                 {
 621:main.c        ****                                     data[5]=time_passed;
 880              		.loc 1 621 0
 881 055e 3E4B     		ldr	r3, .L58+24
 882 0560 1B88     		ldrh	r3, [r3]
 883 0562 ADF82E30 		strh	r3, [sp, #46]	@ movhi
 884              	.LVL145:
 622:main.c        ****                                     nsamples=0;
 623:main.c        ****                                     overths_x=0;
 624:main.c        ****                                   
 625:main.c        ****                                     EEPROM_writePage(0x0002,(uint8_t*)data,DATA_BYTES);
 885              		.loc 1 625 0
 886 0566 0C22     		movs	r2, #12
 887 0568 09A9     		add	r1, sp, #36
 888 056a 0220     		movs	r0, #2
 889              	.LVL146:
 890 056c FFF7FEFF 		bl	EEPROM_writePage
 891              	.LVL147:
 626:main.c        ****                                     EEPROM_waitForWriteComplete();                                
 892              		.loc 1 626 0
 893 0570 FFF7FEFF 		bl	EEPROM_waitForWriteComplete
 894              	.LVL148:
 627:main.c        ****                                     
 628:main.c        ****                                     EEPROM_readPage(0x0002,(uint8_t*)Data_read,DATA_BYTES);
 895              		.loc 1 628 0
 896 0574 0C22     		movs	r2, #12
 897 0576 0CA9     		add	r1, sp, #48
 898 0578 0220     		movs	r0, #2
 899 057a FFF7FEFF 		bl	EEPROM_readPage
 900              	.LVL149:
 629:main.c        ****                                     
 630:main.c        ****                                     /* Print 5 overthreshold samples and timestamp */
 631:main.c        ****                                     sprintf(message, "Over threshold data: %d %d %d %d %d Timestamp
 901              		.loc 1 631 0
 902 057e BDF93020 		ldrsh	r2, [sp, #48]
ARM GAS  C:\Users\Susanna\AppData\Local\Temp\ccpgn79U.s 			page 28


 903 0582 BDF93230 		ldrsh	r3, [sp, #50]
 904 0586 BDF93410 		ldrsh	r1, [sp, #52]
 905 058a BDF93600 		ldrsh	r0, [sp, #54]
 906 058e BDF938E0 		ldrsh	lr, [sp, #56]
 907 0592 BDF93AC0 		ldrsh	ip, [sp, #58]
 908 0596 CDF80CC0 		str	ip, [sp, #12]
 909 059a CDF808E0 		str	lr, [sp, #8]
 910 059e 0190     		str	r0, [sp, #4]
 911 05a0 0091     		str	r1, [sp]
 912 05a2 2E49     		ldr	r1, .L58+28
 913 05a4 5BA8     		add	r0, sp, #364
 914 05a6 FFF7FEFF 		bl	sprintf
 915              	.LVL150:
 632:main.c        ****             						UART_PutString(message);
 916              		.loc 1 632 0
 917 05aa 5BA8     		add	r0, sp, #364
 918 05ac FFF7FEFF 		bl	UART_PutString
 919              	.LVL151:
 623:main.c        ****                                   
 920              		.loc 1 623 0
 921 05b0 4FF0000B 		mov	fp, #0
 622:main.c        ****                                     overths_x=0;
 922              		.loc 1 622 0
 923 05b4 D846     		mov	r8, fp
 924 05b6 09E0     		b	.L44
 925              	.LVL152:
 926              	.L43:
 633:main.c        ****                                 }                          
 634:main.c        ****                         }
 635:main.c        ****                         // Over-threshold in y-axis
 636:main.c        ****                         else if ((error == NO_ERROR) && (int2_src_reg & (Y_HIGH)))
 927              		.loc 1 636 0
 928 05b8 B9F1000F 		cmp	r9, #0
 929 05bc 06D1     		bne	.L44
 930              		.loc 1 636 0 is_stmt 0 discriminator 1
 931 05be 9DF83E30 		ldrb	r3, [sp, #62]	@ zero_extendqisi2
 932 05c2 13F0480F 		tst	r3, #72
 933 05c6 01D0     		beq	.L44
 637:main.c        ****                         {                  
 638:main.c        ****                             // Set the flag overths_y
 639:main.c        ****                             overths_y=1;
 934              		.loc 1 639 0 is_stmt 1
 935 05c8 4FF0010A 		mov	r10, #1
 936              	.LVL153:
 937              	.L44:
 640:main.c        ****                         }
 641:main.c        ****                         if (overths_y)
 938              		.loc 1 641 0
 939 05cc BAF1000F 		cmp	r10, #0
 940 05d0 46D0     		beq	.L45
 642:main.c        ****                         {
 643:main.c        ****                             // Save 5 samples and timestamp of the event in memory
 644:main.c        ****                             data[nsamples]=Y_Out_mg[i];
 941              		.loc 1 644 0
 942 05d2 09AB     		add	r3, sp, #36
 943 05d4 23F81860 		strh	r6, [r3, r8, lsl #1]	@ movhi
 645:main.c        ****                             nsamples++;
ARM GAS  C:\Users\Susanna\AppData\Local\Temp\ccpgn79U.s 			page 29


 944              		.loc 1 645 0
 945 05d8 08F10108 		add	r8, r8, #1
 946              	.LVL154:
 947 05dc 5FFA88F8 		uxtb	r8, r8
 948              	.LVL155:
 646:main.c        ****                             if (nsamples > N_SAMPLES-2)
 949              		.loc 1 646 0
 950 05e0 B8F1040F 		cmp	r8, #4
 951 05e4 46D9     		bls	.L46
 647:main.c        ****                                 {
 648:main.c        ****                                     data[5]=time_passed;
 952              		.loc 1 648 0
 953 05e6 1C4B     		ldr	r3, .L58+24
 954 05e8 1B88     		ldrh	r3, [r3]
 955 05ea ADF82E30 		strh	r3, [sp, #46]	@ movhi
 956              	.LVL156:
 649:main.c        ****                                     nsamples=0;
 650:main.c        ****                                     overths_y=0;
 651:main.c        ****                                   
 652:main.c        ****                                     EEPROM_writePage(0x0002,(uint8_t*)data,DATA_BYTES);
 957              		.loc 1 652 0
 958 05ee 0C22     		movs	r2, #12
 959 05f0 09A9     		add	r1, sp, #36
 960 05f2 0220     		movs	r0, #2
 961 05f4 FFF7FEFF 		bl	EEPROM_writePage
 962              	.LVL157:
 653:main.c        ****                                     EEPROM_waitForWriteComplete();                                
 963              		.loc 1 653 0
 964 05f8 FFF7FEFF 		bl	EEPROM_waitForWriteComplete
 965              	.LVL158:
 654:main.c        ****                                     
 655:main.c        ****                                     EEPROM_readPage(0x0002,(uint8_t*)Data_read,DATA_BYTES);
 966              		.loc 1 655 0
 967 05fc 0C22     		movs	r2, #12
 968 05fe 0CA9     		add	r1, sp, #48
 969 0600 0220     		movs	r0, #2
 970 0602 FFF7FEFF 		bl	EEPROM_readPage
 971              	.LVL159:
 656:main.c        ****                                     
 657:main.c        ****                                     /* Print 5 overthreshold samples and timestamp */
 658:main.c        ****                                     sprintf(message, "Over threshold data: %d %d %d %d %d Timestamp
 972              		.loc 1 658 0
 973 0606 BDF93020 		ldrsh	r2, [sp, #48]
 974 060a BDF93230 		ldrsh	r3, [sp, #50]
 975 060e BDF93410 		ldrsh	r1, [sp, #52]
 976 0612 BDF93600 		ldrsh	r0, [sp, #54]
 977 0616 BDF938E0 		ldrsh	lr, [sp, #56]
 978 061a BDF93AC0 		ldrsh	ip, [sp, #58]
 979 061e CDF80CC0 		str	ip, [sp, #12]
 980 0622 CDF808E0 		str	lr, [sp, #8]
 981 0626 0190     		str	r0, [sp, #4]
 982 0628 0091     		str	r1, [sp]
 983 062a 0C49     		ldr	r1, .L58+28
 984 062c 5BA8     		add	r0, sp, #364
 985 062e FFF7FEFF 		bl	sprintf
 986              	.LVL160:
 659:main.c        ****             						UART_PutString(message);
ARM GAS  C:\Users\Susanna\AppData\Local\Temp\ccpgn79U.s 			page 30


 987              		.loc 1 659 0
 988 0632 5BA8     		add	r0, sp, #364
 989 0634 FFF7FEFF 		bl	UART_PutString
 990              	.LVL161:
 650:main.c        ****                                   
 991              		.loc 1 650 0
 992 0638 4FF0000A 		mov	r10, #0
 649:main.c        ****                                     overths_y=0;
 993              		.loc 1 649 0
 994 063c D046     		mov	r8, r10
 995 063e 19E0     		b	.L46
 996              	.L59:
 997              		.align	2
 998              	.L58:
 999 0640 B4050000 		.word	.LC27
 1000 0644 00000000 		.word	Parameters
 1001 0648 00000000 		.word	sensitivity
 1002 064c 00000000 		.word	fullscale_range
 1003 0650 00000000 		.word	confidence_interval
 1004 0654 00000000 		.word	button_pressed
 1005 0658 00000000 		.word	time_passed
 1006 065c F4050000 		.word	.LC28
 1007              	.LVL162:
 1008              	.L45:
 660:main.c        ****                                 }                          
 661:main.c        ****                         }
 662:main.c        ****                         // Over-threshold in z-axis
 663:main.c        ****                         else if ((error == NO_ERROR) && (int2_src_reg & (Z_HIGH)))
 1009              		.loc 1 663 0
 1010 0660 B9F1000F 		cmp	r9, #0
 1011 0664 06D1     		bne	.L46
 1012              		.loc 1 663 0 is_stmt 0 discriminator 1
 1013 0666 9DF83E30 		ldrb	r3, [sp, #62]	@ zero_extendqisi2
 1014 066a 13F0600F 		tst	r3, #96
 1015 066e 01D0     		beq	.L46
 664:main.c        ****                         {                  
 665:main.c        ****                             // Set the flag overths_z
 666:main.c        ****                             overths_z=1;
 1016              		.loc 1 666 0 is_stmt 1
 1017 0670 0123     		movs	r3, #1
 1018 0672 0593     		str	r3, [sp, #20]
 1019              	.LVL163:
 1020              	.L46:
 667:main.c        ****                         }
 668:main.c        ****                         if (overths_z)
 1021              		.loc 1 668 0
 1022 0674 059B     		ldr	r3, [sp, #20]
 1023 0676 002B     		cmp	r3, #0
 1024 0678 35D0     		beq	.L47
 669:main.c        ****                         {
 670:main.c        ****                             // Save 5 samples and timestamp of the event in memory
 671:main.c        ****                             data[nsamples]=Z_Out_mg[i];
 1025              		.loc 1 671 0
 1026 067a 09AB     		add	r3, sp, #36
 1027 067c 23F81870 		strh	r7, [r3, r8, lsl #1]	@ movhi
 672:main.c        ****                             nsamples++;
 1028              		.loc 1 672 0
ARM GAS  C:\Users\Susanna\AppData\Local\Temp\ccpgn79U.s 			page 31


 1029 0680 08F10108 		add	r8, r8, #1
 1030              	.LVL164:
 1031 0684 5FFA88F8 		uxtb	r8, r8
 1032              	.LVL165:
 673:main.c        ****                             if (nsamples > N_SAMPLES-2)
 1033              		.loc 1 673 0
 1034 0688 B8F1040F 		cmp	r8, #4
 1035 068c 2BD9     		bls	.L47
 674:main.c        ****                                 {
 675:main.c        ****                                     data[5]=time_passed;
 1036              		.loc 1 675 0
 1037 068e 7F4B     		ldr	r3, .L60
 1038 0690 1B88     		ldrh	r3, [r3]
 1039 0692 ADF82E30 		strh	r3, [sp, #46]	@ movhi
 1040              	.LVL166:
 676:main.c        ****                                     nsamples=0;
 677:main.c        ****                                     overths_z=0;
 678:main.c        ****                                   
 679:main.c        ****                                     EEPROM_writePage(0x0002,(uint8_t*)data,DATA_BYTES);
 1041              		.loc 1 679 0
 1042 0696 0C22     		movs	r2, #12
 1043 0698 09A9     		add	r1, sp, #36
 1044 069a 0220     		movs	r0, #2
 1045 069c FFF7FEFF 		bl	EEPROM_writePage
 1046              	.LVL167:
 680:main.c        ****                                     EEPROM_waitForWriteComplete();                                
 1047              		.loc 1 680 0
 1048 06a0 FFF7FEFF 		bl	EEPROM_waitForWriteComplete
 1049              	.LVL168:
 681:main.c        ****                                     
 682:main.c        ****                                     EEPROM_readPage(0x0002,(uint8_t*)Data_read,DATA_BYTES);
 1050              		.loc 1 682 0
 1051 06a4 0C22     		movs	r2, #12
 1052 06a6 0CA9     		add	r1, sp, #48
 1053 06a8 0220     		movs	r0, #2
 1054 06aa FFF7FEFF 		bl	EEPROM_readPage
 1055              	.LVL169:
 683:main.c        ****                                     
 684:main.c        ****                                     /* Print 5 overthreshold samples and timestamp */
 685:main.c        ****                                     sprintf(message, "Over threshold data: %d %d %d %d %d Timestamp
 1056              		.loc 1 685 0
 1057 06ae BDF93020 		ldrsh	r2, [sp, #48]
 1058 06b2 BDF93230 		ldrsh	r3, [sp, #50]
 1059 06b6 BDF93410 		ldrsh	r1, [sp, #52]
 1060 06ba BDF93600 		ldrsh	r0, [sp, #54]
 1061 06be BDF938E0 		ldrsh	lr, [sp, #56]
 1062 06c2 BDF93AC0 		ldrsh	ip, [sp, #58]
 1063 06c6 CDF80CC0 		str	ip, [sp, #12]
 1064 06ca CDF808E0 		str	lr, [sp, #8]
 1065 06ce 0190     		str	r0, [sp, #4]
 1066 06d0 0091     		str	r1, [sp]
 1067 06d2 6F49     		ldr	r1, .L60+4
 1068 06d4 5BA8     		add	r0, sp, #364
 1069 06d6 FFF7FEFF 		bl	sprintf
 1070              	.LVL170:
 686:main.c        ****             						UART_PutString(message);
 1071              		.loc 1 686 0
ARM GAS  C:\Users\Susanna\AppData\Local\Temp\ccpgn79U.s 			page 32


 1072 06da 5BA8     		add	r0, sp, #364
 1073 06dc FFF7FEFF 		bl	UART_PutString
 1074              	.LVL171:
 677:main.c        ****                                   
 1075              		.loc 1 677 0
 1076 06e0 0023     		movs	r3, #0
 1077 06e2 0593     		str	r3, [sp, #20]
 676:main.c        ****                                     overths_z=0;
 1078              		.loc 1 676 0
 1079 06e4 9846     		mov	r8, r3
 1080              	.LVL172:
 1081              	.L47:
 687:main.c        ****                                 }                          
 688:main.c        ****                         }
 689:main.c        ****                                                                        
 690:main.c        **** 					/* Code to plot data on the Bridge Control Panel*/
 691:main.c        **** //                      MSB (x-axis)
 692:main.c        **** //						OutArray[1]=(uint8_t)(X_Out_mg[i] >> 8);
 693:main.c        **** //						LSB (x-axis)
 694:main.c        **** //						OutArray[2]=(uint8_t)(X_Out_mg[i] & 0xFF);
 695:main.c        **** // 					    MSB (y-axis)
 696:main.c        **** //						OutArray[3]=(uint8_t)(Y_Out_mg[i] >> 8);
 697:main.c        **** //						LSB (y-axis)
 698:main.c        **** //					    OutArray[4]=(uint8_t)(Y_Out_mg[i] & 0xFF);
 699:main.c        **** //						MSB (z-axis)
 700:main.c        **** //						OutArray[5]=(uint8_t)(Z_Out_mg[i] >> 8);
 701:main.c        **** //						LSB (z-axis)
 702:main.c        **** //						OutArray[6]=(uint8_t)(Z_Out_mg[i] & 0xFF);
 703:main.c        **** //                        
 704:main.c        **** //                      // Read the value of the threshold and save both positive and negative valu
 705:main.c        **** //                      uint8_t int2_ths;
 706:main.c        **** //                      error = I2C_Peripheral_ReadRegister(LIS3DH_DEVICE_ADDRESS,
 707:main.c        **** //                                             LIS3DH_INT2_THS,
 708:main.c        **** //                                             &int2_ths);
 709:main.c        **** //                      int16_t threshold;
 710:main.c        **** //                      threshold=int2_ths*sensitivity;
 711:main.c        **** //						OutArray[7]=(uint8_t)(threshold >> 8);
 712:main.c        **** //						OutArray[8]=(uint8_t)(threshold & 0xFF);
 713:main.c        **** //                      OutArray[9]= -OutArray[7];
 714:main.c        **** //                      OutArray[10]= -OutArray[8];
 715:main.c        **** //						
 716:main.c        **** //                      UART_PutArray(OutArray,12);
 717:main.c        **** 						
 718:main.c        ****                         /* Print acceleration data and current parameters */
 719:main.c        ****                         sprintf(message, "Acceleration data: %d %d %d \r\n Parameters: 0x%02X (0x%0
 1082              		.loc 1 719 0
 1083 06e6 6B4B     		ldr	r3, .L60+8
 1084 06e8 1B78     		ldrb	r3, [r3]	@ zero_extendqisi2
 1085 06ea 0293     		str	r3, [sp, #8]
 1086 06ec 049B     		ldr	r3, [sp, #16]
 1087 06ee 0193     		str	r3, [sp, #4]
 1088 06f0 0097     		str	r7, [sp]
 1089 06f2 3346     		mov	r3, r6
 1090 06f4 2A46     		mov	r2, r5
 1091 06f6 6849     		ldr	r1, .L60+12
 1092 06f8 5BA8     		add	r0, sp, #364
 1093 06fa FFF7FEFF 		bl	sprintf
ARM GAS  C:\Users\Susanna\AppData\Local\Temp\ccpgn79U.s 			page 33


 1094              	.LVL173:
 720:main.c        **** 						UART_PutString(message);
 1095              		.loc 1 720 0
 1096 06fe 5BA8     		add	r0, sp, #364
 1097 0700 FFF7FEFF 		bl	UART_PutString
 1098              	.LVL174:
 721:main.c        ****                         
 722:main.c        **** 						CyDelay(5);
 1099              		.loc 1 722 0
 1100 0704 0520     		movs	r0, #5
 1101 0706 FFF7FEFF 		bl	CyDelay
 1102              	.LVL175:
 1103              	.L41:
 564:main.c        **** 				{
 1104              		.loc 1 564 0 discriminator 2
 1105 070a 0134     		adds	r4, r4, #1
 1106              	.LVL176:
 1107 070c E4B2     		uxtb	r4, r4
 1108              	.LVL177:
 1109 070e 04E0     		b	.L40
 1110              	.LVL178:
 1111              	.L51:
 1112 0710 0024     		movs	r4, #0
 1113 0712 DDF818A0 		ldr	r10, [sp, #24]
 1114 0716 CDF81C90 		str	r9, [sp, #28]
 1115              	.LVL179:
 1116              	.L40:
 564:main.c        **** 				{
 1117              		.loc 1 564 0 is_stmt 0 discriminator 1
 1118 071a 1F2C     		cmp	r4, #31
 1119 071c 7FF6B9AE 		bls	.L48
 1120 0720 CDF818A0 		str	r10, [sp, #24]
 1121 0724 DDF81C90 		ldr	r9, [sp, #28]
 723:main.c        **** 					}
 724:main.c        **** 				}
 725:main.c        **** 			
 726:main.c        **** 				/* Enable Bypass mode */
 727:main.c        **** 				fifo_ctrl_reg = LIS3DH_BYPASS_MODE;
 1122              		.loc 1 727 0 is_stmt 1
 1123 0728 0022     		movs	r2, #0
 1124 072a 8DF80321 		strb	r2, [sp, #259]
 728:main.c        **** 				error = I2C_Peripheral_WriteRegister(LIS3DH_DEVICE_ADDRESS,
 1125              		.loc 1 728 0
 1126 072e 2E21     		movs	r1, #46
 1127 0730 1820     		movs	r0, #24
 1128 0732 FFF7FEFF 		bl	I2C_Peripheral_WriteRegister
 1129              	.LVL180:
 729:main.c        **** 													 LIS3DH_FIFO_CTRL_REG,
 730:main.c        **** 													 fifo_ctrl_reg); 
 731:main.c        ****         
 732:main.c        **** 				
 733:main.c        **** 				/* Enable FIFO mode again for next reading */
 734:main.c        **** 				fifo_ctrl_reg = LIS3DH_FIFO_MODE;
 1130              		.loc 1 734 0
 1131 0736 4022     		movs	r2, #64
 1132 0738 8DF80321 		strb	r2, [sp, #259]
 735:main.c        **** 				error = I2C_Peripheral_WriteRegister(LIS3DH_DEVICE_ADDRESS,
ARM GAS  C:\Users\Susanna\AppData\Local\Temp\ccpgn79U.s 			page 34


 1133              		.loc 1 735 0
 1134 073c 2E21     		movs	r1, #46
 1135 073e 1820     		movs	r0, #24
 1136 0740 FFF7FEFF 		bl	I2C_Peripheral_WriteRegister
 1137              	.LVL181:
 1138 0744 6CE6     		b	.L34
 1139              	.LVL182:
 1140              	.L37:
 736:main.c        **** 													LIS3DH_FIFO_CTRL_REG,
 737:main.c        **** 													fifo_ctrl_reg);             
 738:main.c        **** 			}
 739:main.c        ****             break;
 740:main.c        ****             
 741:main.c        ****             /* STOP */
 742:main.c        ****             case(1):
 743:main.c        ****             /* Update parameters and state and save in memory */
 744:main.c        ****             Parameters=Parameters>>4;
 1141              		.loc 1 744 0
 1142 0746 534C     		ldr	r4, .L60+8
 1143 0748 2178     		ldrb	r1, [r4]	@ zero_extendqisi2
 745:main.c        ****             Parameters=(Parameters<<4)|state;
 1144              		.loc 1 745 0
 1145 074a 01F0F001 		and	r1, r1, #240
 1146 074e 41EA0901 		orr	r1, r1, r9
 1147 0752 C9B2     		uxtb	r1, r1
 1148 0754 2170     		strb	r1, [r4]
 746:main.c        ****             EEPROM_writeByte(0x0000,Parameters);
 1149              		.loc 1 746 0
 1150 0756 0020     		movs	r0, #0
 1151 0758 FFF7FEFF 		bl	EEPROM_writeByte
 1152              	.LVL183:
 747:main.c        ****             EEPROM_waitForWriteComplete();
 1153              		.loc 1 747 0
 1154 075c FFF7FEFF 		bl	EEPROM_waitForWriteComplete
 1155              	.LVL184:
 748:main.c        ****             Parameters_read=EEPROM_readByte(0x0000);
 1156              		.loc 1 748 0
 1157 0760 0020     		movs	r0, #0
 1158 0762 FFF7FEFF 		bl	EEPROM_readByte
 1159              	.LVL185:
 749:main.c        ****             
 750:main.c        ****             /* Print current parameters */
 751:main.c        ****             sprintf(buffer_EEPROM," EEPROM Read Parameters = 0x%02X (0x%02X)\r\n", Parameters_read,
 1160              		.loc 1 751 0
 1161 0766 2378     		ldrb	r3, [r4]	@ zero_extendqisi2
 1162 0768 0246     		mov	r2, r0
 1163 076a 4C49     		ldr	r1, .L60+16
 1164 076c 42A8     		add	r0, sp, #264
 1165              	.LVL186:
 1166 076e FFF7FEFF 		bl	sprintf
 1167              	.LVL187:
 752:main.c        ****             UART_PutString(buffer_EEPROM);
 1168              		.loc 1 752 0
 1169 0772 42A8     		add	r0, sp, #264
 1170 0774 FFF7FEFF 		bl	UART_PutString
 1171              	.LVL188:
 753:main.c        ****             
ARM GAS  C:\Users\Susanna\AppData\Local\Temp\ccpgn79U.s 			page 35


 754:main.c        ****             /* Turn off on-board LED */
 755:main.c        ****             PWM_ONBOARD_Stop();
 1172              		.loc 1 755 0
 1173 0778 FFF7FEFF 		bl	PWM_ONBOARD_Stop
 1174              	.LVL189:
 756:main.c        ****             PWM_ONBOARD_WriteCompare(0);
 1175              		.loc 1 756 0
 1176 077c 0020     		movs	r0, #0
 1177 077e FFF7FEFF 		bl	PWM_ONBOARD_WriteCompare
 1178              	.LVL190:
 757:main.c        ****             PWM_ONBOARD_Start();
 1179              		.loc 1 757 0
 1180 0782 FFF7FEFF 		bl	PWM_ONBOARD_Start
 1181              	.LVL191:
 758:main.c        **** 
 759:main.c        ****             PWM_RG_WriteCompare1(255);
 1182              		.loc 1 759 0
 1183 0786 FF20     		movs	r0, #255
 1184 0788 FFF7FEFF 		bl	PWM_RG_WriteCompare1
 1185              	.LVL192:
 760:main.c        ****             PWM_RG_WriteCompare2(0);
 1186              		.loc 1 760 0
 1187 078c 0020     		movs	r0, #0
 1188 078e FFF7FEFF 		bl	PWM_RG_WriteCompare2
 1189              	.LVL193:
 761:main.c        ****             PWM_B_WriteCompare(255);
 1190              		.loc 1 761 0
 1191 0792 FF20     		movs	r0, #255
 1192 0794 FFF7FEFF 		bl	PWM_B_WriteCompare
 1193              	.LVL194:
 762:main.c        **** 
 763:main.c        ****             break;
 1194              		.loc 1 763 0
 1195 0798 42E6     		b	.L34
 1196              	.L38:
 764:main.c        ****             
 765:main.c        ****             /* CONFIGURATION MODE */
 766:main.c        ****             case(2):
 767:main.c        ****             /* Blinking of the on-board LED */
 768:main.c        ****             PWM_ONBOARD_Stop();
 1197              		.loc 1 768 0
 1198 079a FFF7FEFF 		bl	PWM_ONBOARD_Stop
 1199              	.LVL195:
 769:main.c        ****             PWM_ONBOARD_WriteCompare(127);
 1200              		.loc 1 769 0
 1201 079e 7F20     		movs	r0, #127
 1202 07a0 FFF7FEFF 		bl	PWM_ONBOARD_WriteCompare
 1203              	.LVL196:
 770:main.c        ****             PWM_ONBOARD_Start();
 1204              		.loc 1 770 0
 1205 07a4 FFF7FEFF 		bl	PWM_ONBOARD_Start
 1206              	.LVL197:
 771:main.c        ****             
 772:main.c        ****             PWM_RG_WriteCompare1(255);
 1207              		.loc 1 772 0
 1208 07a8 FF20     		movs	r0, #255
 1209 07aa FFF7FEFF 		bl	PWM_RG_WriteCompare1
ARM GAS  C:\Users\Susanna\AppData\Local\Temp\ccpgn79U.s 			page 36


 1210              	.LVL198:
 773:main.c        ****             PWM_RG_WriteCompare2(0);
 1211              		.loc 1 773 0
 1212 07ae 0020     		movs	r0, #0
 1213 07b0 FFF7FEFF 		bl	PWM_RG_WriteCompare2
 1214              	.LVL199:
 774:main.c        ****             PWM_B_WriteCompare(255);
 1215              		.loc 1 774 0
 1216 07b4 FF20     		movs	r0, #255
 1217 07b6 FFF7FEFF 		bl	PWM_B_WriteCompare
 1218              	.LVL200:
 775:main.c        ****             
 776:main.c        ****             /* Read from memory the value of the previous flag */
 777:main.c        ****             old_flag=EEPROM_readByte(0x0001);
 1219              		.loc 1 777 0
 1220 07ba 0120     		movs	r0, #1
 1221 07bc FFF7FEFF 		bl	EEPROM_readByte
 1222              	.LVL201:
 1223 07c0 0746     		mov	r7, r0
 1224              	.LVL202:
 778:main.c        ****             
 779:main.c        ****             /* Toggle the pin FLAG to know the value of the flag and save it in memory */
 780:main.c        ****             flag = FLAG_Read();
 1225              		.loc 1 780 0
 1226 07c2 FFF7FEFF 		bl	FLAG_Read
 1227              	.LVL203:
 1228 07c6 0446     		mov	r4, r0
 1229              	.LVL204:
 781:main.c        ****             EEPROM_writeByte(0x0001,flag);
 1230              		.loc 1 781 0
 1231 07c8 0146     		mov	r1, r0
 1232 07ca 0120     		movs	r0, #1
 1233              	.LVL205:
 1234 07cc FFF7FEFF 		bl	EEPROM_writeByte
 1235              	.LVL206:
 782:main.c        ****             EEPROM_waitForWriteComplete();
 1236              		.loc 1 782 0
 1237 07d0 FFF7FEFF 		bl	EEPROM_waitForWriteComplete
 1238              	.LVL207:
 783:main.c        ****             
 784:main.c        ****             
 785:main.c        ****             if (flag == 1)
 1239              		.loc 1 785 0
 1240 07d4 012C     		cmp	r4, #1
 1241 07d6 35D1     		bne	.L49
 786:main.c        ****             {
 787:main.c        ****                 /* Read values of parameters saved in memory */
 788:main.c        ****                 Parameters_read=EEPROM_readByte(0x0000);
 1242              		.loc 1 788 0
 1243 07d8 0020     		movs	r0, #0
 1244 07da FFF7FEFF 		bl	EEPROM_readByte
 1245              	.LVL208:
 789:main.c        ****                 Parameters_read=Parameters_read>>4;
 790:main.c        ****                 Parameters_read=(Parameters_read<<4)|state;
 1246              		.loc 1 790 0
 1247 07de 00F47F60 		and	r0, r0, #4080
 1248              	.LVL209:
ARM GAS  C:\Users\Susanna\AppData\Local\Temp\ccpgn79U.s 			page 37


 1249 07e2 4FFA89F5 		sxtb	r5, r9
 1250 07e6 45EA0006 		orr	r6, r5, r0
 1251 07ea F6B2     		uxtb	r6, r6
 1252              	.LVL210:
 791:main.c        ****                 
 792:main.c        ****                 /* Set parameters (full-scale range) with potentiometer */
 793:main.c        ****                 setParameter();
 1253              		.loc 1 793 0
 1254 07ec FFF7FEFF 		bl	setParameter
 1255              	.LVL211:
 794:main.c        ****                 
 795:main.c        ****                 /* Update parameters and state */
 796:main.c        ****                 Parameters=(Parameters<<4)|state;
 1256              		.loc 1 796 0
 1257 07f0 DFF8A0A0 		ldr	r10, .L60+8
 1258 07f4 9AF80010 		ldrb	r1, [r10]	@ zero_extendqisi2
 1259 07f8 45EA0111 		orr	r1, r5, r1, lsl #4
 1260 07fc C9B2     		uxtb	r1, r1
 1261 07fe 8AF80010 		strb	r1, [r10]
 797:main.c        ****                 EEPROM_writeByte(0x0000,Parameters);
 1262              		.loc 1 797 0
 1263 0802 0020     		movs	r0, #0
 1264 0804 FFF7FEFF 		bl	EEPROM_writeByte
 1265              	.LVL212:
 798:main.c        ****                 EEPROM_waitForWriteComplete();
 1266              		.loc 1 798 0
 1267 0808 FFF7FEFF 		bl	EEPROM_waitForWriteComplete
 1268              	.LVL213:
 799:main.c        ****                 
 800:main.c        ****                 /*Check if potentiometer has been moved during read-only modality */
 801:main.c        ****                 if(Parameters!=Parameters_read && (old_flag!=flag))
 1269              		.loc 1 801 0
 1270 080c 9AF80030 		ldrb	r3, [r10]	@ zero_extendqisi2
 1271 0810 9E42     		cmp	r6, r3
 1272 0812 09D0     		beq	.L50
 1273              		.loc 1 801 0 is_stmt 0 discriminator 1
 1274 0814 A742     		cmp	r7, r4
 1275 0816 07D0     		beq	.L50
 802:main.c        ****                 {
 803:main.c        ****                   sprintf(buffer_EEPROM,"**ATTENTION: Position of potentiometer changed during read
 1276              		.loc 1 803 0 is_stmt 1
 1277 0818 4E22     		movs	r2, #78
 1278 081a 2149     		ldr	r1, .L60+20
 1279 081c 42A8     		add	r0, sp, #264
 1280 081e FFF7FEFF 		bl	memcpy
 1281              	.LVL214:
 804:main.c        ****                   UART_PutString(buffer_EEPROM);
 1282              		.loc 1 804 0
 1283 0822 42A8     		add	r0, sp, #264
 1284 0824 FFF7FEFF 		bl	UART_PutString
 1285              	.LVL215:
 1286              	.L50:
 805:main.c        ****                 }
 806:main.c        ****                 
 807:main.c        ****                 /* Save new parameters in memory and print */
 808:main.c        ****                 Parameters_read=EEPROM_readByte(0x0000);
 1287              		.loc 1 808 0
ARM GAS  C:\Users\Susanna\AppData\Local\Temp\ccpgn79U.s 			page 38


 1288 0828 0020     		movs	r0, #0
 1289 082a FFF7FEFF 		bl	EEPROM_readByte
 1290              	.LVL216:
 809:main.c        ****                 sprintf(buffer_EEPROM," EEPROM Read Parameters = 0x%02X (0x%02X)\r\n", Parameters_r
 1291              		.loc 1 809 0
 1292 082e 194B     		ldr	r3, .L60+8
 1293 0830 1B78     		ldrb	r3, [r3]	@ zero_extendqisi2
 1294 0832 0246     		mov	r2, r0
 1295 0834 1949     		ldr	r1, .L60+16
 1296 0836 42A8     		add	r0, sp, #264
 1297              	.LVL217:
 1298 0838 FFF7FEFF 		bl	sprintf
 1299              	.LVL218:
 810:main.c        ****                 UART_PutString(buffer_EEPROM);
 1300              		.loc 1 810 0
 1301 083c 42A8     		add	r0, sp, #264
 1302 083e FFF7FEFF 		bl	UART_PutString
 1303              	.LVL219:
 1304 0842 EDE5     		b	.L34
 1305              	.L49:
 811:main.c        ****             } else {
 812:main.c        ****                 
 813:main.c        ****                 /* Update parameters and state and save in memory */
 814:main.c        ****                 Parameters_read=EEPROM_readByte(0x0000);
 1306              		.loc 1 814 0
 1307 0844 0020     		movs	r0, #0
 1308 0846 FFF7FEFF 		bl	EEPROM_readByte
 1309              	.LVL220:
 815:main.c        ****                 Parameters_read=Parameters_read>>4;
 816:main.c        ****                 Parameters_read=(Parameters_read<<4)|state;
 1310              		.loc 1 816 0
 1311 084a 00F47F60 		and	r0, r0, #4080
 1312              	.LVL221:
 1313 084e 40EA0906 		orr	r6, r0, r9
 1314 0852 F6B2     		uxtb	r6, r6
 1315              	.LVL222:
 817:main.c        **** 
 818:main.c        ****                 sprintf(message, "****WARNING: configuration menu is in read-only modality****\r\n"
 1316              		.loc 1 818 0
 1317 0854 5BAC     		add	r4, sp, #364
 1318 0856 134D     		ldr	r5, .L60+24
 1319 0858 0FCD     		ldmia	r5!, {r0, r1, r2, r3}
 1320 085a 0FC4     		stmia	r4!, {r0, r1, r2, r3}
 1321 085c 0FCD     		ldmia	r5!, {r0, r1, r2, r3}
 1322 085e 0FC4     		stmia	r4!, {r0, r1, r2, r3}
 1323 0860 0FCD     		ldmia	r5!, {r0, r1, r2, r3}
 1324 0862 0FC4     		stmia	r4!, {r0, r1, r2, r3}
 1325 0864 95E80F00 		ldmia	r5, {r0, r1, r2, r3}
 1326 0868 07C4     		stmia	r4!, {r0, r1, r2}
 1327 086a 24F8023B 		strh	r3, [r4], #2	@ movhi
 1328 086e 1B0C     		lsrs	r3, r3, #16
 1329 0870 2370     		strb	r3, [r4]
 819:main.c        ****                 UART_PutString(message);
 1330              		.loc 1 819 0
 1331 0872 5BA8     		add	r0, sp, #364
 1332 0874 FFF7FEFF 		bl	UART_PutString
 1333              	.LVL223:
ARM GAS  C:\Users\Susanna\AppData\Local\Temp\ccpgn79U.s 			page 39


 820:main.c        ****                 sprintf(buffer_EEPROM," EEPROM Read Parameters = 0x%02X\r\n\n", Parameters_read);
 1334              		.loc 1 820 0
 1335 0878 3246     		mov	r2, r6
 1336 087a 0B49     		ldr	r1, .L60+28
 1337 087c 42A8     		add	r0, sp, #264
 1338 087e FFF7FEFF 		bl	sprintf
 1339              	.LVL224:
 821:main.c        ****                 UART_PutString(buffer_EEPROM); 
 1340              		.loc 1 821 0
 1341 0882 42A8     		add	r0, sp, #264
 1342 0884 FFF7FEFF 		bl	UART_PutString
 1343              	.LVL225:
 1344 0888 CAE5     		b	.L34
 1345              	.L61:
 1346 088a 00BF     		.align	2
 1347              	.L60:
 1348 088c 00000000 		.word	time_passed
 1349 0890 F4050000 		.word	.LC28
 1350 0894 00000000 		.word	Parameters
 1351 0898 30060000 		.word	.LC29
 1352 089c 70060000 		.word	.LC30
 1353 08a0 9C060000 		.word	.LC31
 1354 08a4 EC060000 		.word	.LC32
 1355 08a8 2C070000 		.word	.LC33
 1356              		.cfi_endproc
 1357              	.LFE64:
 1358              		.size	main, .-main
 1359              		.comm	Parameters,1,1
 1360              		.comm	confidence_interval,1,1
 1361              		.comm	sensitivity,1,1
 1362              		.comm	fullscale_range,2,2
 1363              		.comm	time_passed,2,2
 1364              		.comm	click_count,4,4
 1365              		.comm	button_pressed,4,4
 1366              		.section	.rodata.str1.4,"aMS",%progbits,1
 1367              		.align	2
 1368              	.LC0:
 1369 0000 434F4E54 		.ascii	"CONTROL REGISTER 1: 0x%02X\015\012\000"
 1369      524F4C20 
 1369      52454749 
 1369      53544552 
 1369      20313A20 
 1370 001d 000000   		.space	3
 1371              	.LC1:
 1372 0020 4572726F 		.ascii	"Error occurred during I2C comm to read control regi"
 1372      72206F63 
 1372      63757272 
 1372      65642064 
 1372      7572696E 
 1373 0053 73746572 		.ascii	"ster 1\015\012\000"
 1373      20310D0A 
 1373      00
 1374              	.LC2:
 1375 005c 434F4E54 		.ascii	"CONTROL REGISTER 1 successfully written as: 0x%02X\015"
 1375      524F4C20 
 1375      52454749 
 1375      53544552 
ARM GAS  C:\Users\Susanna\AppData\Local\Temp\ccpgn79U.s 			page 40


 1375      20312073 
 1376 008f 0A00     		.ascii	"\012\000"
 1377 0091 000000   		.space	3
 1378              	.LC3:
 1379 0094 4572726F 		.ascii	"Error occurred during I2C comm to set control regis"
 1379      72206F63 
 1379      63757272 
 1379      65642064 
 1379      7572696E 
 1380 00c7 74657220 		.ascii	"ter 1\015\012\000"
 1380      310D0A00 
 1381 00cf 00       		.space	1
 1382              	.LC4:
 1383 00d0 434F4E54 		.ascii	"CONTROL REGISTER 3: 0x%02X\015\012\000"
 1383      524F4C20 
 1383      52454749 
 1383      53544552 
 1383      20333A20 
 1384 00ed 000000   		.space	3
 1385              	.LC5:
 1386 00f0 4572726F 		.ascii	"Error occurred during I2C comm to read control regi"
 1386      72206F63 
 1386      63757272 
 1386      65642064 
 1386      7572696E 
 1387 0123 73746572 		.ascii	"ster 3\015\012\000"
 1387      20330D0A 
 1387      00
 1388              	.LC6:
 1389 012c 434F4E54 		.ascii	"CONTROL REGISTER 3 successfully written as: 0x%02X\015"
 1389      524F4C20 
 1389      52454749 
 1389      53544552 
 1389      20332073 
 1390 015f 0A00     		.ascii	"\012\000"
 1391 0161 000000   		.space	3
 1392              	.LC7:
 1393 0164 4572726F 		.ascii	"Error occurred during I2C comm to set control regis"
 1393      72206F63 
 1393      63757272 
 1393      65642064 
 1393      7572696E 
 1394 0197 74657220 		.ascii	"ter 3\015\012\000"
 1394      330D0A00 
 1395 019f 00       		.space	1
 1396              	.LC8:
 1397 01a0 434F4E54 		.ascii	"CONTROL REGISTER 5: 0x%02X\015\012\000"
 1397      524F4C20 
 1397      52454749 
 1397      53544552 
 1397      20353A20 
 1398 01bd 000000   		.space	3
 1399              	.LC9:
 1400 01c0 4572726F 		.ascii	"Error occurred during I2C comm to read control regi"
 1400      72206F63 
 1400      63757272 
 1400      65642064 
ARM GAS  C:\Users\Susanna\AppData\Local\Temp\ccpgn79U.s 			page 41


 1400      7572696E 
 1401 01f3 73746572 		.ascii	"ster 5\015\012\000"
 1401      20350D0A 
 1401      00
 1402              	.LC10:
 1403 01fc 434F4E54 		.ascii	"CONTROL REGISTER 5 successfully written as: 0x%02X\015"
 1403      524F4C20 
 1403      52454749 
 1403      53544552 
 1403      20352073 
 1404 022f 0A00     		.ascii	"\012\000"
 1405 0231 000000   		.space	3
 1406              	.LC11:
 1407 0234 4572726F 		.ascii	"Error occurred during I2C comm to set control regis"
 1407      72206F63 
 1407      63757272 
 1407      65642064 
 1407      7572696E 
 1408 0267 74657220 		.ascii	"ter 5\015\012\000"
 1408      350D0A00 
 1409 026f 00       		.space	1
 1410              	.LC12:
 1411 0270 434F4E54 		.ascii	"CONTROL REGISTER 6: 0x%02X\015\012\000"
 1411      524F4C20 
 1411      52454749 
 1411      53544552 
 1411      20363A20 
 1412 028d 000000   		.space	3
 1413              	.LC13:
 1414 0290 4572726F 		.ascii	"Error occurred during I2C comm to read control regi"
 1414      72206F63 
 1414      63757272 
 1414      65642064 
 1414      7572696E 
 1415 02c3 73746572 		.ascii	"ster 6\015\012\000"
 1415      20360D0A 
 1415      00
 1416              	.LC14:
 1417 02cc 434F4E54 		.ascii	"CONTROL REGISTER 6 successfully written as: 0x%02X\015"
 1417      524F4C20 
 1417      52454749 
 1417      53544552 
 1417      20362073 
 1418 02ff 0A00     		.ascii	"\012\000"
 1419 0301 000000   		.space	3
 1420              	.LC15:
 1421 0304 4572726F 		.ascii	"Error occurred during I2C comm to set control regis"
 1421      72206F63 
 1421      63757272 
 1421      65642064 
 1421      7572696E 
 1422 0337 74657220 		.ascii	"ter 6\015\012\000"
 1422      360D0A00 
 1423 033f 00       		.space	1
 1424              	.LC16:
 1425 0340 4649464F 		.ascii	"FIFO CONTROL REGISTER: 0x%02X\015\012\000"
 1425      20434F4E 
ARM GAS  C:\Users\Susanna\AppData\Local\Temp\ccpgn79U.s 			page 42


 1425      54524F4C 
 1425      20524547 
 1425      49535445 
 1426              	.LC17:
 1427 0360 4572726F 		.ascii	"Error occurred during I2C comm to read FIFO control"
 1427      72206F63 
 1427      63757272 
 1427      65642064 
 1427      7572696E 
 1428 0393 20726567 		.ascii	" register \015\012\000"
 1428      69737465 
 1428      72200D0A 
 1428      00
 1429              	.LC18:
 1430 03a0 4649464F 		.ascii	"FIFO CONTROL REGISTER successfully written as: 0x%0"
 1430      20434F4E 
 1430      54524F4C 
 1430      20524547 
 1430      49535445 
 1431 03d3 32580D0A 		.ascii	"2X\015\012\000"
 1431      00
 1432              	.LC19:
 1433 03d8 4572726F 		.ascii	"Error occurred during I2C comm to set FIFO control "
 1433      72206F63 
 1433      63757272 
 1433      65642064 
 1433      7572696E 
 1434 040b 72656769 		.ascii	"register \015\012\000"
 1434      73746572 
 1434      200D0A00 
 1435 0417 00       		.space	1
 1436              	.LC20:
 1437 0418 494E5432 		.ascii	"INT2 CONFIGURATION REGISTER: 0x%02X\015\012\000"
 1437      20434F4E 
 1437      46494755 
 1437      52415449 
 1437      4F4E2052 
 1438 043e 0000     		.space	2
 1439              	.LC21:
 1440 0440 4572726F 		.ascii	"Error occurred during I2C comm to read INT2 CONFIGU"
 1440      72206F63 
 1440      63757272 
 1440      65642064 
 1440      7572696E 
 1441 0473 52415449 		.ascii	"RATION REGISTER \015\012\000"
 1441      4F4E2052 
 1441      45474953 
 1441      54455220 
 1441      0D0A00
 1442 0486 0000     		.space	2
 1443              	.LC22:
 1444 0488 494E5432 		.ascii	"INT2 CONFIGURATION REGISTER successfully written as"
 1444      20434F4E 
 1444      46494755 
 1444      52415449 
 1444      4F4E2052 
 1445 04bb 3A203078 		.ascii	": 0x%02X\015\012\000"
ARM GAS  C:\Users\Susanna\AppData\Local\Temp\ccpgn79U.s 			page 43


 1445      25303258 
 1445      0D0A00
 1446 04c6 0000     		.space	2
 1447              	.LC23:
 1448 04c8 4572726F 		.ascii	"Error occurred during I2C comm to set INT2 CONFIGUR"
 1448      72206F63 
 1448      63757272 
 1448      65642064 
 1448      7572696E 
 1449 04fb 4154494F 		.ascii	"ATION REGISTER \015\012\000"
 1449      4E205245 
 1449      47495354 
 1449      4552200D 
 1449      0A00
 1450 050d 000000   		.space	3
 1451              	.LC24:
 1452 0510 494E5432 		.ascii	"INT2 DURATION REGISTER: 0x%02X\015\012\000"
 1452      20445552 
 1452      4154494F 
 1452      4E205245 
 1452      47495354 
 1453 0531 000000   		.space	3
 1454              	.LC25:
 1455 0534 4572726F 		.ascii	"Error occurred during I2C comm to read INT2 DURATIO"
 1455      72206F63 
 1455      63757272 
 1455      65642064 
 1455      7572696E 
 1456 0567 4E205245 		.ascii	"N REGISTER \015\012\000"
 1456      47495354 
 1456      4552200D 
 1456      0A00
 1457 0575 000000   		.space	3
 1458              	.LC26:
 1459 0578 494E5432 		.ascii	"INT2 DURATION REGISTER successfully written as: 0x%"
 1459      20445552 
 1459      4154494F 
 1459      4E205245 
 1459      47495354 
 1460 05ab 3032580D 		.ascii	"02X\015\012\000"
 1460      0A00
 1461 05b1 000000   		.space	3
 1462              	.LC27:
 1463 05b4 4572726F 		.ascii	"Error occurred during I2C comm to set INT2 DURATION"
 1463      72206F63 
 1463      63757272 
 1463      65642064 
 1463      7572696E 
 1464 05e7 20524547 		.ascii	" REGISTER \015\012\000"
 1464      49535445 
 1464      52200D0A 
 1464      00
 1465              	.LC28:
 1466 05f4 4F766572 		.ascii	"Over threshold data: %d %d %d %d %d Timestamp: %d s"
 1466      20746872 
 1466      6573686F 
 1466      6C642064 
ARM GAS  C:\Users\Susanna\AppData\Local\Temp\ccpgn79U.s 			page 44


 1466      6174613A 
 1467 0627 65636F6E 		.ascii	"econds\015\012\000"
 1467      64730D0A 
 1467      00
 1468              	.LC29:
 1469 0630 41636365 		.ascii	"Acceleration data: %d %d %d \015\012 Parameters: 0x"
 1469      6C657261 
 1469      74696F6E 
 1469      20646174 
 1469      613A2025 
 1470 065d 25303258 		.ascii	"%02X (0x%02X)\015\012\012\000"
 1470      20283078 
 1470      25303258 
 1470      290D0A0A 
 1470      00
 1471 066e 0000     		.space	2
 1472              	.LC30:
 1473 0670 20454550 		.ascii	" EEPROM Read Parameters = 0x%02X (0x%02X)\015\012\000"
 1473      524F4D20 
 1473      52656164 
 1473      20506172 
 1473      616D6574 
 1474              	.LC31:
 1475 069c 2A2A4154 		.ascii	"**ATTENTION: Position of potentiometer changed duri"
 1475      54454E54 
 1475      494F4E3A 
 1475      20506F73 
 1475      6974696F 
 1476 06cf 6E672072 		.ascii	"ng read-only modality**\015\012\012\000"
 1476      6561642D 
 1476      6F6E6C79 
 1476      206D6F64 
 1476      616C6974 
 1477 06ea 0000     		.space	2
 1478              	.LC32:
 1479 06ec 2A2A2A2A 		.ascii	"****WARNING: configuration menu is in read-only mod"
 1479      5741524E 
 1479      494E473A 
 1479      20636F6E 
 1479      66696775 
 1480 071f 616C6974 		.ascii	"ality****\015\012\000"
 1480      792A2A2A 
 1480      2A0D0A00 
 1481 072b 00       		.space	1
 1482              	.LC33:
 1483 072c 20454550 		.ascii	" EEPROM Read Parameters = 0x%02X\015\012\012\000"
 1483      524F4D20 
 1483      52656164 
 1483      20506172 
 1483      616D6574 
 1484              		.text
 1485              	.Letext0:
 1486              		.file 2 "c:\\program files (x86)\\cypress\\psoc creator\\4.3\\psoc creator\\import\\gnu\\arm\\5.4.
 1487              		.file 3 "c:\\program files (x86)\\cypress\\psoc creator\\4.3\\psoc creator\\import\\gnu\\arm\\5.4.
 1488              		.file 4 "Generated_Source\\PSoC5/cytypes.h"
 1489              		.file 5 "ErrorCodes.h"
 1490              		.file 6 "Generated_Source\\PSoC5/core_cm3.h"
ARM GAS  C:\Users\Susanna\AppData\Local\Temp\ccpgn79U.s 			page 45


 1491              		.file 7 "InterruptRoutines.h"
 1492              		.file 8 "SettingParameter.h"
 1493              		.file 9 "I2C_Interface.h"
 1494              		.file 10 "Generated_Source\\PSoC5/UART.h"
 1495              		.file 11 "RGBLedDriver.h"
 1496              		.file 12 "Generated_Source\\PSoC5/PWM_ONBOARD.h"
 1497              		.file 13 "Generated_Source\\PSoC5/ISR_SW.h"
 1498              		.file 14 "Generated_Source\\PSoC5/isr_TimePassed.h"
 1499              		.file 15 "Generated_Source\\PSoC5/Timer_SW.h"
 1500              		.file 16 "Generated_Source\\PSoC5/Timer_CountTime.h"
 1501              		.file 17 "Generated_Source\\PSoC5/SPIM.h"
 1502              		.file 18 "Generated_Source\\PSoC5/ADC_DelSig.h"
 1503              		.file 19 "Generated_Source\\PSoC5/CyLib.h"
 1504              		.file 20 "c:\\program files (x86)\\cypress\\psoc creator\\4.3\\psoc creator\\import\\gnu\\arm\\5.4
 1505              		.file 21 "25LC256.h"
 1506              		.file 22 "SW_State.h"
 1507              		.file 23 "Generated_Source\\PSoC5/PWM_RG.h"
 1508              		.file 24 "Generated_Source\\PSoC5/PWM_B.h"
 1509              		.file 25 "Generated_Source\\PSoC5/FLAG.h"