ARM GAS  C:\Users\Susanna\AppData\Local\Temp\ccoDTssp.s 			page 1


   1              		.syntax unified
   2              		.cpu cortex-m3
   3              		.fpu softvfp
   4              		.eabi_attribute 20, 1
   5              		.eabi_attribute 21, 1
   6              		.eabi_attribute 23, 3
   7              		.eabi_attribute 24, 1
   8              		.eabi_attribute 25, 1
   9              		.eabi_attribute 26, 1
  10              		.eabi_attribute 30, 1
  11              		.eabi_attribute 34, 1
  12              		.eabi_attribute 18, 4
  13              		.thumb
  14              		.syntax unified
  15              		.file	"main.c"
  16              		.text
  17              	.Ltext0:
  18              		.cfi_sections	.debug_frame
  19              		.section	.text.main,"ax",%progbits
  20              		.align	2
  21              		.global	main
  22              		.thumb
  23              		.thumb_func
  24              		.type	main, %function
  25              	main:
  26              	.LFB64:
  27              		.file 1 "main.c"
   1:main.c        **** /* ========================================
   2:main.c        ****  * \file main.c
   3:main.c        ****  *
   4:main.c        ****  *
   5:main.c        ****  * ========================================
   6:main.c        **** */
   7:main.c        **** 
   8:main.c        **** // Include header files
   9:main.c        **** #include "I2C_Interface.h"
  10:main.c        **** #include "project.h"
  11:main.c        **** #include "stdio.h"
  12:main.c        **** #include "stdlib.h"
  13:main.c        **** #include "RGBLedDriver.h"
  14:main.c        **** 
  15:main.c        **** 
  16:main.c        **** //Brief slave device address
  17:main.c        **** #define LIS3DH_DEVICE_ADDRESS 0x18
  18:main.c        **** 
  19:main.c        **** //Brief WHO AM I register address
  20:main.c        **** #define LIS3DH_WHO_AM_I_REG_ADDR 0x0F
  21:main.c        **** 
  22:main.c        **** //Brieg CONTROL REGISTER 1 address
  23:main.c        **** #define LIS3DH_CTRL_REG1 0x20
  24:main.c        **** 
  25:main.c        **** /*Brief HEX value for CONTROL REGISTER 1: High resolution mode at 100 Hz
  26:main.c        **** CTRL_REG1[3]=LPen=0 (HR mode);
  27:main.c        **** CTRL_REG1[7:4]=ODR[3:0]=0101 (100 Hz)*/
  28:main.c        **** #define LIS3DH_HR_MODE_100_HZ_CTRL_REG1 0x57
  29:main.c        **** 
  30:main.c        **** //Brieg CONTROL REGISTER 3 address
ARM GAS  C:\Users\Susanna\AppData\Local\Temp\ccoDTssp.s 			page 2


  31:main.c        **** #define LIS3DH_CTRL_REG3 0x22
  32:main.c        **** 
  33:main.c        **** /*Brief HEX value for CONTROL REGISTER 2: 
  34:main.c        **** CTRL_REG3[1]=I1_OVERRUN=1 (FIFO overrun interrupt on INT1 enabled); */
  35:main.c        **** #define LIS3DH_OVERRUN_INT_CTRL_REG3 0x02
  36:main.c        **** 
  37:main.c        **** //Brief CONTROL REGISTER 4 address
  38:main.c        **** #define LIS3DH_CTRL_REG4 0x23
  39:main.c        **** 
  40:main.c        **** /*Brief HEX value for CONTROL REGISTER 4: +- 2.0 g FSR
  41:main.c        **** CTRL_REG4[3]=1 (High resolution enabled)
  42:main.c        **** CTRL_REG4[5:4]=FS[1:0]=00 (2.0 g FSR) */
  43:main.c        **** #define LIS3DH_CTRL_REG4_2g 0x88
  44:main.c        **** 
  45:main.c        **** /*Brief HEX value for CONTROL REGISTER 4: +- 4.0 g FSR
  46:main.c        **** CTRL_REG4[3]=1 (High resolution enabled)
  47:main.c        **** CTRL_REG4[5:4]=FS[1:0]=01 (4.0 g FSR) */
  48:main.c        **** #define LIS3DH_CTRL_REG4_4g 0x98
  49:main.c        **** 
  50:main.c        **** /*Brief HEX value for CONTROL REGISTER 4: +- 8.0 g FSR
  51:main.c        **** CTRL_REG4[3]=1 (High resolution enabled)
  52:main.c        **** CTRL_REG4[5:4]=FS[1:0]=10 (8.0 g FSR) */
  53:main.c        **** #define LIS3DH_CTRL_REG4_8g 0xA8
  54:main.c        **** 
  55:main.c        **** /*Brief HEX value for CONTROL REGISTER 4: +- 16.0 g FSR
  56:main.c        **** CTRL_REG4[3]=1 (High resolution enabled)
  57:main.c        **** CTRL_REG4[5:4]=FS[1:0]=11 (16.0 g FSR) */
  58:main.c        **** #define LIS3DH_CTRL_REG4_16g 0xB8
  59:main.c        **** 
  60:main.c        **** //Brief CONTROL REGISTER 5 address
  61:main.c        **** #define LIS3DH_CTRL_REG5 0x24
  62:main.c        **** 
  63:main.c        **** /*Brief HEX value for CONTROL REGISTER 5:
  64:main.c        **** FIFO_EN=1 (enable FIFO buffer)*/
  65:main.c        **** #define LIS3DH_FIFO_ENABLED 0x40
  66:main.c        **** 
  67:main.c        **** //Brief FIFO CONTROL REGISTER address
  68:main.c        **** #define LIS3DH_FIFO_CTRL_REG 0x2E
  69:main.c        **** 
  70:main.c        **** /*Brief HEX value for FIFO CONTROL REGISTER:
  71:main.c        **** FM[1:0]=01 (FIFO mode)
  72:main.c        **** TR=1 (Triggering signal on INT2)*/
  73:main.c        **** #define LIS3DH_FIFO_MODE 0x40//0x60
  74:main.c        **** 
  75:main.c        **** /*Brief HEX value for FIFO CONTROL REGISTER:
  76:main.c        **** FM[1:0]=00 (BYPASS mode)
  77:main.c        **** TR=1 (Triggering signal on INT2)*/
  78:main.c        **** #define LIS3DH_BYPASS_MODE 0x00 //0x20
  79:main.c        **** 
  80:main.c        **** //Brief FIFO SRC REGISTER address
  81:main.c        **** #define LIS3DH_FIFO_SRC_REG 0x2F
  82:main.c        **** 
  83:main.c        **** //Brief INT2 CONFIGURATION register address
  84:main.c        **** #define LIS3DH_INT2_CFG 0x34
  85:main.c        **** 
  86:main.c        **** /*Brief HEX value for IN2 CONFIGURATION register:
  87:main.c        **** ZHIE=YHIE=ZHIE=1 (Interrupt request on measured accel. value lower than preset
ARM GAS  C:\Users\Susanna\AppData\Local\Temp\ccoDTssp.s 			page 3


  88:main.c        **** threshold)
  89:main.c        **** */
  90:main.c        **** #define LIS3DH_INT2_HIGH_EVENT 0x2A
  91:main.c        **** 
  92:main.c        **** //Brief INT2 THRESHOLD register address
  93:main.c        **** #define LIS3DH_INT2_THS 0x36
  94:main.c        **** 
  95:main.c        **** /*Brief HEX value for INT2 THRESHOLD register:
  96:main.c        **** 	TO BE DEFINED 
  97:main.c        **** */
  98:main.c        **** #define LIS3DH_THRESHOLD_EVENTS 
  99:main.c        **** 
 100:main.c        **** //Brief INT2 DURATION register address
 101:main.c        **** #define LIS3DH_INT2_DURATION 0x37 
 102:main.c        **** 
 103:main.c        **** /*Brief HEX value for INT2 DURATION register:
 104:main.c        **** 	TO BE DEFINED
 105:main.c        **** */
 106:main.c        **** #define LIS3DH_DURATION_EVENT 
 107:main.c        **** 
 108:main.c        **** //Brief OUT_X_L register address (x-axis output LSB)
 109:main.c        **** #define LIS3DH_OUT_X_L 0x28
 110:main.c        **** 
 111:main.c        **** //Brief OUT_Y_L register address (y-axis output LSB)
 112:main.c        **** #define LIS3DH_OUT_Y_L 0x2A
 113:main.c        **** 
 114:main.c        **** //Brief OUT_Z_L register address (z-axis output LSB)
 115:main.c        **** #define LIS3DH_OUT_Z_L 0x2C
 116:main.c        **** 
 117:main.c        **** /* SENSITIVITY DEVE ESSERE UNA VARIABILE CHE CAMBIA !!!!! */
 118:main.c        **** 
 119:main.c        **** //Brief value of sensitivity in High Resolution mode and FS=4g (2 mg/digit)
 120:main.c        **** #define HR_SENSITIVITY_4g 2
 121:main.c        **** 
 122:main.c        **** 
 123:main.c        **** 
 124:main.c        **** 
 125:main.c        **** int main(void)
 126:main.c        **** {
  28              		.loc 1 126 0
  29              		.cfi_startproc
  30              		@ args = 0, pretend = 0, frame = 256
  31              		@ frame_needed = 0, uses_anonymous_args = 0
  32 0000 F0B5     		push	{r4, r5, r6, r7, lr}
  33              		.cfi_def_cfa_offset 20
  34              		.cfi_offset 4, -20
  35              		.cfi_offset 5, -16
  36              		.cfi_offset 6, -12
  37              		.cfi_offset 7, -8
  38              		.cfi_offset 14, -4
  39 0002 C3B0     		sub	sp, sp, #268
  40              		.cfi_def_cfa_offset 288
 127:main.c        ****     CyGlobalIntEnable; 
  41              		.loc 1 127 0
  42              		.syntax unified
  43              	@ 127 "main.c" 1
  44 0004 62B6     		CPSIE   i
ARM GAS  C:\Users\Susanna\AppData\Local\Temp\ccoDTssp.s 			page 4


  45              	@ 0 "" 2
 128:main.c        ****     
 129:main.c        ****     /* INITIALIZATION */
 130:main.c        ****     
 131:main.c        ****     I2C_Peripheral_Start();
  46              		.loc 1 131 0
  47              		.thumb
  48              		.syntax unified
  49 0006 FFF7FEFF 		bl	I2C_Peripheral_Start
  50              	.LVL0:
 132:main.c        ****     UART_Start();
  51              		.loc 1 132 0
  52 000a FFF7FEFF 		bl	UART_Start
  53              	.LVL1:
 133:main.c        ****     RGBLed_Start();
  54              		.loc 1 133 0
  55 000e FFF7FEFF 		bl	RGBLed_Start
  56              	.LVL2:
 134:main.c        ****     
 135:main.c        ****     
 136:main.c        ****   
 137:main.c        ****     //"The boot procedure is complete about 5 milliseconds after device power-up."
 138:main.c        ****     CyDelay(5); 
  57              		.loc 1 138 0
  58 0012 0520     		movs	r0, #5
  59 0014 FFF7FEFF 		bl	CyDelay
  60              	.LVL3:
 139:main.c        ****    
 140:main.c        ****     /* -----------------------------------------
 141:main.c        **** 		READING AND WRITING OF LIS3DH REGISTERS
 142:main.c        **** 		---------------------------------------- */
 143:main.c        ****     
 144:main.c        ****     char message[50];
 145:main.c        ****     
 146:main.c        ****     // CONTROL REGISTER 1
 147:main.c        ****     uint8_t ctrl_reg1; 
 148:main.c        ****     ErrorCode error = I2C_Peripheral_ReadRegister(LIS3DH_DEVICE_ADDRESS,
  61              		.loc 1 148 0
  62 0018 0DF1D302 		add	r2, sp, #211
  63 001c 2021     		movs	r1, #32
  64 001e 1820     		movs	r0, #24
  65 0020 FFF7FEFF 		bl	I2C_Peripheral_ReadRegister
  66              	.LVL4:
 149:main.c        ****                                         LIS3DH_CTRL_REG1,
 150:main.c        ****                                         &ctrl_reg1);
 151:main.c        ****      if (error == NO_ERROR)
  67              		.loc 1 151 0
  68 0024 48B9     		cbnz	r0, .L2
 152:main.c        ****     {
 153:main.c        ****         sprintf(message, "CONTROL REGISTER 1: 0x%02X\r\n", ctrl_reg1);
  69              		.loc 1 153 0
  70 0026 9DF8D320 		ldrb	r2, [sp, #211]	@ zero_extendqisi2
  71 002a BC49     		ldr	r1, .L33
  72 002c 35A8     		add	r0, sp, #212
  73              	.LVL5:
  74 002e FFF7FEFF 		bl	sprintf
  75              	.LVL6:
ARM GAS  C:\Users\Susanna\AppData\Local\Temp\ccoDTssp.s 			page 5


 154:main.c        ****         UART_PutString(message); 
  76              		.loc 1 154 0
  77 0032 35A8     		add	r0, sp, #212
  78 0034 FFF7FEFF 		bl	UART_PutString
  79              	.LVL7:
  80 0038 02E0     		b	.L3
  81              	.LVL8:
  82              	.L2:
 155:main.c        ****     }
 156:main.c        ****     else
 157:main.c        ****     {
 158:main.c        ****         UART_PutString("Error occurred during I2C comm to read control register 1\r\n");   
  83              		.loc 1 158 0
  84 003a B948     		ldr	r0, .L33+4
  85              	.LVL9:
  86 003c FFF7FEFF 		bl	UART_PutString
  87              	.LVL10:
  88              	.L3:
 159:main.c        ****     }
 160:main.c        ****     
 161:main.c        **** 
 162:main.c        ****     if (ctrl_reg1 != LIS3DH_HR_MODE_100_HZ_CTRL_REG1)
  89              		.loc 1 162 0
  90 0040 9DF8D330 		ldrb	r3, [sp, #211]	@ zero_extendqisi2
  91 0044 572B     		cmp	r3, #87
  92 0046 14D0     		beq	.L4
 163:main.c        ****     {
 164:main.c        ****         ctrl_reg1 = LIS3DH_HR_MODE_100_HZ_CTRL_REG1;
  93              		.loc 1 164 0
  94 0048 5722     		movs	r2, #87
  95 004a 8DF8D320 		strb	r2, [sp, #211]
 165:main.c        ****         error = I2C_Peripheral_WriteRegister(LIS3DH_DEVICE_ADDRESS,
  96              		.loc 1 165 0
  97 004e 2021     		movs	r1, #32
  98 0050 1820     		movs	r0, #24
  99 0052 FFF7FEFF 		bl	I2C_Peripheral_WriteRegister
 100              	.LVL11:
 166:main.c        ****                                              LIS3DH_CTRL_REG1,
 167:main.c        ****                                              ctrl_reg1);  
 168:main.c        ****         
 169:main.c        ****         if (error == NO_ERROR)
 101              		.loc 1 169 0
 102 0056 48B9     		cbnz	r0, .L5
 170:main.c        ****         {
 171:main.c        ****             sprintf(message, "CONTROL REGISTER 1 successfully written as: 0x%02X\r\n", ctrl_reg1);
 103              		.loc 1 171 0
 104 0058 9DF8D320 		ldrb	r2, [sp, #211]	@ zero_extendqisi2
 105 005c B149     		ldr	r1, .L33+8
 106 005e 35A8     		add	r0, sp, #212
 107              	.LVL12:
 108 0060 FFF7FEFF 		bl	sprintf
 109              	.LVL13:
 172:main.c        ****             UART_PutString(message); 
 110              		.loc 1 172 0
 111 0064 35A8     		add	r0, sp, #212
 112 0066 FFF7FEFF 		bl	UART_PutString
 113              	.LVL14:
ARM GAS  C:\Users\Susanna\AppData\Local\Temp\ccoDTssp.s 			page 6


 114 006a 02E0     		b	.L4
 115              	.LVL15:
 116              	.L5:
 173:main.c        ****         }
 174:main.c        ****         else
 175:main.c        ****         {
 176:main.c        ****             UART_PutString("Error occurred during I2C comm to set control register 1\r\n");   
 117              		.loc 1 176 0
 118 006c AE48     		ldr	r0, .L33+12
 119              	.LVL16:
 120 006e FFF7FEFF 		bl	UART_PutString
 121              	.LVL17:
 122              	.L4:
 177:main.c        ****         }
 178:main.c        ****     }
 179:main.c        ****     
 180:main.c        ****     // CONTROL REGISTER 3
 181:main.c        ****     uint8_t ctrl_reg3; 
 182:main.c        ****     error = I2C_Peripheral_ReadRegister(LIS3DH_DEVICE_ADDRESS,
 123              		.loc 1 182 0
 124 0072 0DF1D202 		add	r2, sp, #210
 125 0076 2221     		movs	r1, #34
 126 0078 1820     		movs	r0, #24
 127 007a FFF7FEFF 		bl	I2C_Peripheral_ReadRegister
 128              	.LVL18:
 183:main.c        ****                                         LIS3DH_CTRL_REG3,
 184:main.c        ****                                         &ctrl_reg3);
 185:main.c        ****      if (error == NO_ERROR)
 129              		.loc 1 185 0
 130 007e 48B9     		cbnz	r0, .L6
 186:main.c        ****     {
 187:main.c        ****         sprintf(message, "CONTROL REGISTER 3: 0x%02X\r\n", ctrl_reg3);
 131              		.loc 1 187 0
 132 0080 9DF8D220 		ldrb	r2, [sp, #210]	@ zero_extendqisi2
 133 0084 A949     		ldr	r1, .L33+16
 134 0086 35A8     		add	r0, sp, #212
 135              	.LVL19:
 136 0088 FFF7FEFF 		bl	sprintf
 137              	.LVL20:
 188:main.c        ****         UART_PutString(message); 
 138              		.loc 1 188 0
 139 008c 35A8     		add	r0, sp, #212
 140 008e FFF7FEFF 		bl	UART_PutString
 141              	.LVL21:
 142 0092 02E0     		b	.L7
 143              	.LVL22:
 144              	.L6:
 189:main.c        ****     }
 190:main.c        ****     else
 191:main.c        ****     {
 192:main.c        ****         UART_PutString("Error occurred during I2C comm to read control register 3\r\n");   
 145              		.loc 1 192 0
 146 0094 A648     		ldr	r0, .L33+20
 147              	.LVL23:
 148 0096 FFF7FEFF 		bl	UART_PutString
 149              	.LVL24:
 150              	.L7:
ARM GAS  C:\Users\Susanna\AppData\Local\Temp\ccoDTssp.s 			page 7


 193:main.c        ****     }
 194:main.c        ****     
 195:main.c        **** 
 196:main.c        ****     if (ctrl_reg3 != LIS3DH_OVERRUN_INT_CTRL_REG3)
 151              		.loc 1 196 0
 152 009a 9DF8D230 		ldrb	r3, [sp, #210]	@ zero_extendqisi2
 153 009e 022B     		cmp	r3, #2
 154 00a0 14D0     		beq	.L8
 197:main.c        ****     {
 198:main.c        ****         ctrl_reg3 = LIS3DH_OVERRUN_INT_CTRL_REG3;
 155              		.loc 1 198 0
 156 00a2 0222     		movs	r2, #2
 157 00a4 8DF8D220 		strb	r2, [sp, #210]
 199:main.c        ****         error = I2C_Peripheral_WriteRegister(LIS3DH_DEVICE_ADDRESS,
 158              		.loc 1 199 0
 159 00a8 2221     		movs	r1, #34
 160 00aa 1820     		movs	r0, #24
 161 00ac FFF7FEFF 		bl	I2C_Peripheral_WriteRegister
 162              	.LVL25:
 200:main.c        ****                                              LIS3DH_CTRL_REG3,
 201:main.c        ****                                              ctrl_reg3);  
 202:main.c        ****         
 203:main.c        ****         if (error == NO_ERROR)
 163              		.loc 1 203 0
 164 00b0 48B9     		cbnz	r0, .L9
 204:main.c        ****         {
 205:main.c        ****             sprintf(message, "CONTROL REGISTER 3 successfully written as: 0x%02X\r\n", ctrl_reg3);
 165              		.loc 1 205 0
 166 00b2 9DF8D220 		ldrb	r2, [sp, #210]	@ zero_extendqisi2
 167 00b6 9F49     		ldr	r1, .L33+24
 168 00b8 35A8     		add	r0, sp, #212
 169              	.LVL26:
 170 00ba FFF7FEFF 		bl	sprintf
 171              	.LVL27:
 206:main.c        ****             UART_PutString(message); 
 172              		.loc 1 206 0
 173 00be 35A8     		add	r0, sp, #212
 174 00c0 FFF7FEFF 		bl	UART_PutString
 175              	.LVL28:
 176 00c4 02E0     		b	.L8
 177              	.LVL29:
 178              	.L9:
 207:main.c        ****         }
 208:main.c        ****         else
 209:main.c        ****         {
 210:main.c        ****             UART_PutString("Error occurred during I2C comm to set control register 3\r\n");   
 179              		.loc 1 210 0
 180 00c6 9C48     		ldr	r0, .L33+28
 181              	.LVL30:
 182 00c8 FFF7FEFF 		bl	UART_PutString
 183              	.LVL31:
 184              	.L8:
 211:main.c        ****         }
 212:main.c        ****     }
 213:main.c        ****    
 214:main.c        ****     //CONTROL REGISTER 4   
 215:main.c        ****     uint8_t ctrl_reg4;
ARM GAS  C:\Users\Susanna\AppData\Local\Temp\ccoDTssp.s 			page 8


 216:main.c        ****     error = I2C_Peripheral_ReadRegister(LIS3DH_DEVICE_ADDRESS,
 185              		.loc 1 216 0
 186 00cc 0DF1D102 		add	r2, sp, #209
 187 00d0 2321     		movs	r1, #35
 188 00d2 1820     		movs	r0, #24
 189 00d4 FFF7FEFF 		bl	I2C_Peripheral_ReadRegister
 190              	.LVL32:
 217:main.c        ****                                         LIS3DH_CTRL_REG4,
 218:main.c        ****                                         &ctrl_reg4);
 219:main.c        ****      if (error == NO_ERROR)
 191              		.loc 1 219 0
 192 00d8 48B9     		cbnz	r0, .L10
 220:main.c        ****     {
 221:main.c        ****         sprintf(message, "CONTROL REGISTER 4: 0x%02X\r\n", ctrl_reg4);
 193              		.loc 1 221 0
 194 00da 9DF8D120 		ldrb	r2, [sp, #209]	@ zero_extendqisi2
 195 00de 9749     		ldr	r1, .L33+32
 196 00e0 35A8     		add	r0, sp, #212
 197              	.LVL33:
 198 00e2 FFF7FEFF 		bl	sprintf
 199              	.LVL34:
 222:main.c        ****         UART_PutString(message); 
 200              		.loc 1 222 0
 201 00e6 35A8     		add	r0, sp, #212
 202 00e8 FFF7FEFF 		bl	UART_PutString
 203              	.LVL35:
 204 00ec 02E0     		b	.L11
 205              	.LVL36:
 206              	.L10:
 223:main.c        ****     }
 224:main.c        ****     else
 225:main.c        ****     {
 226:main.c        ****         UART_PutString("Error occurred during I2C comm to read control register 4\r\n");   
 207              		.loc 1 226 0
 208 00ee 9448     		ldr	r0, .L33+36
 209              	.LVL37:
 210 00f0 FFF7FEFF 		bl	UART_PutString
 211              	.LVL38:
 212              	.L11:
 227:main.c        ****     }
 228:main.c        ****     
 229:main.c        ****    
 230:main.c        ****     if (ctrl_reg4 != LIS3DH_CTRL_REG4_4g)
 213              		.loc 1 230 0
 214 00f4 9DF8D130 		ldrb	r3, [sp, #209]	@ zero_extendqisi2
 215 00f8 982B     		cmp	r3, #152
 216 00fa 14D0     		beq	.L12
 231:main.c        ****     {
 232:main.c        ****         ctrl_reg4 = LIS3DH_CTRL_REG4_4g;
 217              		.loc 1 232 0
 218 00fc 9822     		movs	r2, #152
 219 00fe 8DF8D120 		strb	r2, [sp, #209]
 233:main.c        ****         error = I2C_Peripheral_WriteRegister(LIS3DH_DEVICE_ADDRESS,
 220              		.loc 1 233 0
 221 0102 2321     		movs	r1, #35
 222 0104 1820     		movs	r0, #24
 223 0106 FFF7FEFF 		bl	I2C_Peripheral_WriteRegister
ARM GAS  C:\Users\Susanna\AppData\Local\Temp\ccoDTssp.s 			page 9


 224              	.LVL39:
 234:main.c        ****                                          LIS3DH_CTRL_REG4,
 235:main.c        ****                                          ctrl_reg4);
 236:main.c        ****         if (error == NO_ERROR)
 225              		.loc 1 236 0
 226 010a 48B9     		cbnz	r0, .L13
 237:main.c        ****         {
 238:main.c        ****             sprintf(message, "CONTROL REGISTER 4 successfully written as: 0x%02X\r\n", ctrl_reg4);
 227              		.loc 1 238 0
 228 010c 9DF8D120 		ldrb	r2, [sp, #209]	@ zero_extendqisi2
 229 0110 8C49     		ldr	r1, .L33+40
 230 0112 35A8     		add	r0, sp, #212
 231              	.LVL40:
 232 0114 FFF7FEFF 		bl	sprintf
 233              	.LVL41:
 239:main.c        ****             UART_PutString(message); 
 234              		.loc 1 239 0
 235 0118 35A8     		add	r0, sp, #212
 236 011a FFF7FEFF 		bl	UART_PutString
 237              	.LVL42:
 238 011e 02E0     		b	.L12
 239              	.LVL43:
 240              	.L13:
 240:main.c        ****         }
 241:main.c        ****         else
 242:main.c        ****         {
 243:main.c        ****             UART_PutString("Error occurred during I2C comm to set control register 4\r\n");   
 241              		.loc 1 243 0
 242 0120 8948     		ldr	r0, .L33+44
 243              	.LVL44:
 244 0122 FFF7FEFF 		bl	UART_PutString
 245              	.LVL45:
 246              	.L12:
 244:main.c        ****         }
 245:main.c        ****     }
 246:main.c        ****     
 247:main.c        ****     //CONTROL REGISTER 5  
 248:main.c        ****     uint8_t ctrl_reg5;
 249:main.c        ****     error = I2C_Peripheral_ReadRegister(LIS3DH_DEVICE_ADDRESS,
 247              		.loc 1 249 0
 248 0126 34AA     		add	r2, sp, #208
 249 0128 2421     		movs	r1, #36
 250 012a 1820     		movs	r0, #24
 251 012c FFF7FEFF 		bl	I2C_Peripheral_ReadRegister
 252              	.LVL46:
 250:main.c        ****                                         LIS3DH_CTRL_REG5,
 251:main.c        ****                                         &ctrl_reg5); 
 252:main.c        ****      if (error == NO_ERROR)
 253              		.loc 1 252 0
 254 0130 48B9     		cbnz	r0, .L14
 253:main.c        ****     {
 254:main.c        ****         sprintf(message, "CONTROL REGISTER 5: 0x%02X\r\n", ctrl_reg5);
 255              		.loc 1 254 0
 256 0132 9DF8D020 		ldrb	r2, [sp, #208]	@ zero_extendqisi2
 257 0136 8549     		ldr	r1, .L33+48
 258 0138 35A8     		add	r0, sp, #212
 259              	.LVL47:
ARM GAS  C:\Users\Susanna\AppData\Local\Temp\ccoDTssp.s 			page 10


 260 013a FFF7FEFF 		bl	sprintf
 261              	.LVL48:
 255:main.c        ****         UART_PutString(message); 
 262              		.loc 1 255 0
 263 013e 35A8     		add	r0, sp, #212
 264 0140 FFF7FEFF 		bl	UART_PutString
 265              	.LVL49:
 266 0144 02E0     		b	.L15
 267              	.LVL50:
 268              	.L14:
 256:main.c        ****     }
 257:main.c        ****     else
 258:main.c        ****     {
 259:main.c        ****         UART_PutString("Error occurred during I2C comm to read control register 5\r\n");   
 269              		.loc 1 259 0
 270 0146 8248     		ldr	r0, .L33+52
 271              	.LVL51:
 272 0148 FFF7FEFF 		bl	UART_PutString
 273              	.LVL52:
 274              	.L15:
 260:main.c        ****     }
 261:main.c        ****     
 262:main.c        ****     
 263:main.c        ****     if (ctrl_reg5 != LIS3DH_FIFO_ENABLED)
 275              		.loc 1 263 0
 276 014c 9DF8D030 		ldrb	r3, [sp, #208]	@ zero_extendqisi2
 277 0150 402B     		cmp	r3, #64
 278 0152 14D0     		beq	.L16
 264:main.c        ****     {
 265:main.c        ****         ctrl_reg5 = LIS3DH_FIFO_ENABLED;
 279              		.loc 1 265 0
 280 0154 4022     		movs	r2, #64
 281 0156 8DF8D020 		strb	r2, [sp, #208]
 266:main.c        ****         error = I2C_Peripheral_WriteRegister(LIS3DH_DEVICE_ADDRESS,
 282              		.loc 1 266 0
 283 015a 2421     		movs	r1, #36
 284 015c 1820     		movs	r0, #24
 285 015e FFF7FEFF 		bl	I2C_Peripheral_WriteRegister
 286              	.LVL53:
 267:main.c        ****                                          LIS3DH_CTRL_REG5,
 268:main.c        ****                                          ctrl_reg5);
 269:main.c        ****         if (error == NO_ERROR)
 287              		.loc 1 269 0
 288 0162 48B9     		cbnz	r0, .L17
 270:main.c        ****         {
 271:main.c        ****             sprintf(message, "CONTROL REGISTER 5 successfully written as: 0x%02X\r\n", ctrl_reg5);
 289              		.loc 1 271 0
 290 0164 9DF8D020 		ldrb	r2, [sp, #208]	@ zero_extendqisi2
 291 0168 7A49     		ldr	r1, .L33+56
 292 016a 35A8     		add	r0, sp, #212
 293              	.LVL54:
 294 016c FFF7FEFF 		bl	sprintf
 295              	.LVL55:
 272:main.c        ****             UART_PutString(message); 
 296              		.loc 1 272 0
 297 0170 35A8     		add	r0, sp, #212
 298 0172 FFF7FEFF 		bl	UART_PutString
ARM GAS  C:\Users\Susanna\AppData\Local\Temp\ccoDTssp.s 			page 11


 299              	.LVL56:
 300 0176 02E0     		b	.L16
 301              	.LVL57:
 302              	.L17:
 273:main.c        ****         }
 274:main.c        ****         else
 275:main.c        ****         {
 276:main.c        ****             UART_PutString("Error occurred during I2C comm to set control register 5\r\n");   
 303              		.loc 1 276 0
 304 0178 7748     		ldr	r0, .L33+60
 305              	.LVL58:
 306 017a FFF7FEFF 		bl	UART_PutString
 307              	.LVL59:
 308              	.L16:
 277:main.c        ****         }
 278:main.c        ****     }
 279:main.c        ****     
 280:main.c        ****     //FIFO CONTROL REGISTER
 281:main.c        ****     uint8_t fifo_ctrl_reg;
 282:main.c        ****     error = I2C_Peripheral_ReadRegister(LIS3DH_DEVICE_ADDRESS,
 309              		.loc 1 282 0
 310 017e 0DF1CF02 		add	r2, sp, #207
 311 0182 2E21     		movs	r1, #46
 312 0184 1820     		movs	r0, #24
 313 0186 FFF7FEFF 		bl	I2C_Peripheral_ReadRegister
 314              	.LVL60:
 283:main.c        ****                                         LIS3DH_FIFO_CTRL_REG,
 284:main.c        ****                                         &fifo_ctrl_reg); 
 285:main.c        ****      if (error == NO_ERROR)
 315              		.loc 1 285 0
 316 018a 48B9     		cbnz	r0, .L18
 286:main.c        ****     {
 287:main.c        ****         sprintf(message, "FIFO CONTROL REGISTER: 0x%02X\r\n", fifo_ctrl_reg);
 317              		.loc 1 287 0
 318 018c 9DF8CF20 		ldrb	r2, [sp, #207]	@ zero_extendqisi2
 319 0190 7249     		ldr	r1, .L33+64
 320 0192 35A8     		add	r0, sp, #212
 321              	.LVL61:
 322 0194 FFF7FEFF 		bl	sprintf
 323              	.LVL62:
 288:main.c        ****         UART_PutString(message); 
 324              		.loc 1 288 0
 325 0198 35A8     		add	r0, sp, #212
 326 019a FFF7FEFF 		bl	UART_PutString
 327              	.LVL63:
 328 019e 02E0     		b	.L19
 329              	.LVL64:
 330              	.L18:
 289:main.c        ****     }
 290:main.c        ****     else
 291:main.c        ****     {
 292:main.c        ****         UART_PutString("Error occurred during I2C comm to read FIFO control register \r\n");   
 331              		.loc 1 292 0
 332 01a0 6F48     		ldr	r0, .L33+68
 333              	.LVL65:
 334 01a2 FFF7FEFF 		bl	UART_PutString
 335              	.LVL66:
ARM GAS  C:\Users\Susanna\AppData\Local\Temp\ccoDTssp.s 			page 12


 336              	.L19:
 293:main.c        ****     }
 294:main.c        ****     
 295:main.c        ****     
 296:main.c        ****     if (fifo_ctrl_reg != LIS3DH_FIFO_MODE)
 337              		.loc 1 296 0
 338 01a6 9DF8CF30 		ldrb	r3, [sp, #207]	@ zero_extendqisi2
 339 01aa 402B     		cmp	r3, #64
 340 01ac 14D0     		beq	.L20
 297:main.c        ****     {
 298:main.c        ****         fifo_ctrl_reg = LIS3DH_FIFO_MODE;
 341              		.loc 1 298 0
 342 01ae 4022     		movs	r2, #64
 343 01b0 8DF8CF20 		strb	r2, [sp, #207]
 299:main.c        ****         error = I2C_Peripheral_WriteRegister(LIS3DH_DEVICE_ADDRESS,
 344              		.loc 1 299 0
 345 01b4 2E21     		movs	r1, #46
 346 01b6 1820     		movs	r0, #24
 347 01b8 FFF7FEFF 		bl	I2C_Peripheral_WriteRegister
 348              	.LVL67:
 300:main.c        ****                                          LIS3DH_FIFO_CTRL_REG,
 301:main.c        ****                                          fifo_ctrl_reg);
 302:main.c        ****         if (error == NO_ERROR)
 349              		.loc 1 302 0
 350 01bc 48B9     		cbnz	r0, .L21
 303:main.c        ****         {
 304:main.c        ****             sprintf(message, "FIFO CONTROL REGISTER successfully written as: 0x%02X\r\n", fifo_ctrl
 351              		.loc 1 304 0
 352 01be 9DF8CF20 		ldrb	r2, [sp, #207]	@ zero_extendqisi2
 353 01c2 6849     		ldr	r1, .L33+72
 354 01c4 35A8     		add	r0, sp, #212
 355              	.LVL68:
 356 01c6 FFF7FEFF 		bl	sprintf
 357              	.LVL69:
 305:main.c        ****             UART_PutString(message); 
 358              		.loc 1 305 0
 359 01ca 35A8     		add	r0, sp, #212
 360 01cc FFF7FEFF 		bl	UART_PutString
 361              	.LVL70:
 362 01d0 02E0     		b	.L20
 363              	.LVL71:
 364              	.L21:
 306:main.c        ****         }
 307:main.c        ****         else
 308:main.c        ****         {
 309:main.c        ****             UART_PutString("Error occurred during I2C comm to set FIFO control register \r\n");   
 365              		.loc 1 309 0
 366 01d2 6548     		ldr	r0, .L33+76
 367              	.LVL72:
 368 01d4 FFF7FEFF 		bl	UART_PutString
 369              	.LVL73:
 370              	.L20:
 310:main.c        ****         }
 311:main.c        ****     }
 312:main.c        ****     
 313:main.c        **** 	//INT2 CONFIGURATION REGISTER
 314:main.c        ****     uint8_t int2__cfg_reg;
ARM GAS  C:\Users\Susanna\AppData\Local\Temp\ccoDTssp.s 			page 13


 315:main.c        ****     error = I2C_Peripheral_ReadRegister(LIS3DH_DEVICE_ADDRESS,
 371              		.loc 1 315 0
 372 01d8 0DF1CE02 		add	r2, sp, #206
 373 01dc 3421     		movs	r1, #52
 374 01de 1820     		movs	r0, #24
 375 01e0 FFF7FEFF 		bl	I2C_Peripheral_ReadRegister
 376              	.LVL74:
 316:main.c        ****                                         LIS3DH_INT2_CFG,
 317:main.c        ****                                         &int2__cfg_reg); 
 318:main.c        ****      if (error == NO_ERROR)
 377              		.loc 1 318 0
 378 01e4 48B9     		cbnz	r0, .L22
 319:main.c        ****     {
 320:main.c        ****         sprintf(message, "INT2 CONFIGURATION REGISTER: 0x%02X\r\n", int2__cfg_reg);
 379              		.loc 1 320 0
 380 01e6 9DF8CE20 		ldrb	r2, [sp, #206]	@ zero_extendqisi2
 381 01ea 6049     		ldr	r1, .L33+80
 382 01ec 35A8     		add	r0, sp, #212
 383              	.LVL75:
 384 01ee FFF7FEFF 		bl	sprintf
 385              	.LVL76:
 321:main.c        ****         UART_PutString(message); 
 386              		.loc 1 321 0
 387 01f2 35A8     		add	r0, sp, #212
 388 01f4 FFF7FEFF 		bl	UART_PutString
 389              	.LVL77:
 390 01f8 02E0     		b	.L23
 391              	.LVL78:
 392              	.L22:
 322:main.c        ****     }
 323:main.c        ****     else
 324:main.c        ****     {
 325:main.c        ****         UART_PutString("Error occurred during I2C comm to read INT2 CONFIGURATION REGISTER \r\n"); 
 393              		.loc 1 325 0
 394 01fa 5D48     		ldr	r0, .L33+84
 395              	.LVL79:
 396 01fc FFF7FEFF 		bl	UART_PutString
 397              	.LVL80:
 398              	.L23:
 326:main.c        ****     }
 327:main.c        ****     
 328:main.c        ****     
 329:main.c        ****     if (int2__cfg_reg != LIS3DH_INT2_HIGH_EVENT)
 399              		.loc 1 329 0
 400 0200 9DF8CE30 		ldrb	r3, [sp, #206]	@ zero_extendqisi2
 401 0204 2A2B     		cmp	r3, #42
 402 0206 14D0     		beq	.L26
 330:main.c        ****     {
 331:main.c        ****         int2__cfg_reg = LIS3DH_INT2_HIGH_EVENT;
 403              		.loc 1 331 0
 404 0208 2A22     		movs	r2, #42
 405 020a 8DF8CE20 		strb	r2, [sp, #206]
 332:main.c        ****         error = I2C_Peripheral_WriteRegister(LIS3DH_DEVICE_ADDRESS,
 406              		.loc 1 332 0
 407 020e 3421     		movs	r1, #52
 408 0210 1820     		movs	r0, #24
 409 0212 FFF7FEFF 		bl	I2C_Peripheral_WriteRegister
ARM GAS  C:\Users\Susanna\AppData\Local\Temp\ccoDTssp.s 			page 14


 410              	.LVL81:
 333:main.c        ****                                          LIS3DH_INT2_CFG,
 334:main.c        ****                                          int2__cfg_reg);
 335:main.c        ****         if (error == NO_ERROR)
 411              		.loc 1 335 0
 412 0216 48B9     		cbnz	r0, .L25
 336:main.c        ****         {
 337:main.c        ****             sprintf(message, "INT2 CONFIGURATION REGISTER successfully written as: 0x%02X\r\n", int
 413              		.loc 1 337 0
 414 0218 9DF8CE20 		ldrb	r2, [sp, #206]	@ zero_extendqisi2
 415 021c 5549     		ldr	r1, .L33+88
 416 021e 35A8     		add	r0, sp, #212
 417              	.LVL82:
 418 0220 FFF7FEFF 		bl	sprintf
 419              	.LVL83:
 338:main.c        ****             UART_PutString(message); 
 420              		.loc 1 338 0
 421 0224 35A8     		add	r0, sp, #212
 422 0226 FFF7FEFF 		bl	UART_PutString
 423              	.LVL84:
 424 022a 02E0     		b	.L26
 425              	.LVL85:
 426              	.L25:
 339:main.c        ****         }
 340:main.c        ****         else
 341:main.c        ****         {
 342:main.c        ****             UART_PutString("Error occurred during I2C comm to set INT2 CONFIGURATION REGISTER \r\n"
 427              		.loc 1 342 0
 428 022c 5248     		ldr	r0, .L33+92
 429              	.LVL86:
 430 022e FFF7FEFF 		bl	UART_PutString
 431              	.LVL87:
 432              	.L26:
 343:main.c        ****         }
 344:main.c        ****     }
 345:main.c        **** 
 346:main.c        ****     /* ----------------------------------------
 347:main.c        **** 			ACQUISITION OF OUTPUT ACCELERATION 
 348:main.c        **** 			DATA THROUGH LIS3DH FIFO BUFFER 
 349:main.c        **** 		--------------------------------------- */
 350:main.c        ****     
 351:main.c        ****     int16_t X_Out[32];
 352:main.c        ****     int16_t Y_Out[32];
 353:main.c        ****     int16_t Z_Out[32];
 354:main.c        ****     uint8_t OutArray[8]; 
 355:main.c        ****     uint8_t AccelerationData[32][6];
 356:main.c        ****     
 357:main.c        ****     uint8_t fifo_src_reg;
 358:main.c        ****     uint8 i=0;
 359:main.c        **** 	
 360:main.c        ****     #define  HEADER 	0xA0;
 361:main.c        ****     #define  FOOTER 	0xC0;
 362:main.c        ****     
 363:main.c        ****     OutArray[0] = HEADER;
 364:main.c        ****     OutArray[7] = FOOTER;
 365:main.c        ****     
 366:main.c        ****     for(;;)
ARM GAS  C:\Users\Susanna\AppData\Local\Temp\ccoDTssp.s 			page 15


 367:main.c        ****     {
 368:main.c        ****         
 369:main.c        ****          error = I2C_Peripheral_ReadRegister(LIS3DH_DEVICE_ADDRESS,
 433              		.loc 1 369 0
 434 0232 0DF10B02 		add	r2, sp, #11
 435 0236 2F21     		movs	r1, #47
 436 0238 1820     		movs	r0, #24
 437 023a FFF7FEFF 		bl	I2C_Peripheral_ReadRegister
 438              	.LVL88:
 370:main.c        ****                                          LIS3DH_FIFO_SRC_REG,
 371:main.c        ****                                          &fifo_src_reg);    
 372:main.c        ****         if ((error == NO_ERROR) && ((fifo_src_reg) & (0x04)))
 439              		.loc 1 372 0
 440 023e 0028     		cmp	r0, #0
 441 0240 F7D1     		bne	.L26
 442              		.loc 1 372 0 is_stmt 0 discriminator 1
 443 0242 9DF80B30 		ldrb	r3, [sp, #11]	@ zero_extendqisi2
 444 0246 13F0040F 		tst	r3, #4
 445 024a 51D1     		bne	.L31
 446 024c F1E7     		b	.L26
 447              	.LVL89:
 448              	.L30:
 373:main.c        ****          //if (INT_pin_Read()==1)
 374:main.c        ****             {
 375:main.c        ****                 for(i=0;i<32;i++)
 376:main.c        ****                 {
 377:main.c        ****                 // Read output registers - retrieval accel. data (X,Y,Z axis)
 378:main.c        ****                 error=I2C_Peripheral_ReadRegisterMulti(LIS3DH_DEVICE_ADDRESS,
 379:main.c        **** 														LIS3DH_OUT_X_L, 6,
 380:main.c        **** 														AccelerationData[i]);
 449              		.loc 1 380 0 is_stmt 1
 450 024e 04EB4402 		add	r2, r4, r4, lsl #1
 451 0252 5300     		lsls	r3, r2, #1
 378:main.c        **** 														LIS3DH_OUT_X_L, 6,
 452              		.loc 1 378 0
 453 0254 03AA     		add	r2, sp, #12
 454 0256 1344     		add	r3, r3, r2
 455 0258 0622     		movs	r2, #6
 456 025a 2821     		movs	r1, #40
 457 025c 1820     		movs	r0, #24
 458 025e FFF7FEFF 		bl	I2C_Peripheral_ReadRegisterMulti
 459              	.LVL90:
 381:main.c        ****                 if (error == NO_ERROR)
 460              		.loc 1 381 0
 461 0262 0028     		cmp	r0, #0
 462 0264 41D1     		bne	.L29
 382:main.c        ****                 {
 383:main.c        ****                 
 384:main.c        ****                     // Conversion of output data into right-justified 16 bit int (x-axis)
 385:main.c        ****                     X_Out[i]=(int16)((AccelerationData[i][0] | (AccelerationData[i][1] << 8))) >> 4
 463              		.loc 1 385 0
 464 0266 6200     		lsls	r2, r4, #1
 465 0268 1319     		adds	r3, r2, r4
 466 026a 5900     		lsls	r1, r3, #1
 467 026c 42AB     		add	r3, sp, #264
 468 026e 1944     		add	r1, r1, r3
 469 0270 11F8FC3C 		ldrb	r3, [r1, #-252]	@ zero_extendqisi2
ARM GAS  C:\Users\Susanna\AppData\Local\Temp\ccoDTssp.s 			page 16


 470 0274 11F8FB5C 		ldrb	r5, [r1, #-251]	@ zero_extendqisi2
 471 0278 43EA0525 		orr	r5, r3, r5, lsl #8
 472 027c 45F30B15 		sbfx	r5, r5, #4, #12
 386:main.c        ****                     
 387:main.c        ****                     /*scaling to mg (sensitivity=2mg/digit)*/
 388:main.c        ****                     X_Out[i]=abs(X_Out[i]*HR_SENSITIVITY_4g);
 473              		.loc 1 388 0
 474 0280 6D00     		lsls	r5, r5, #1
 475 0282 002D     		cmp	r5, #0
 476 0284 B8BF     		it	lt
 477 0286 6D42     		rsblt	r5, r5, #0
 478 0288 2DB2     		sxth	r5, r5
 389:main.c        ****                     
 390:main.c        ****                     
 391:main.c        ****                     //MSB (x-axis)
 392:main.c        ****                     OutArray[1]=(uint8_t)(X_Out[i] >> 8);
 393:main.c        ****                     //LSB (x-axis)
 394:main.c        ****                     OutArray[2]=(uint8_t)(X_Out[i] & 0xFF);
 395:main.c        ****                     
 396:main.c        ****                     // Conversion of output data into right-justified 16 bit int (y-axis)
 397:main.c        ****                     Y_Out[i]=(int16)((AccelerationData[i][2] | (AccelerationData[i][3] << 8))) >> 4
 479              		.loc 1 397 0
 480 028a 11F8FA3C 		ldrb	r3, [r1, #-250]	@ zero_extendqisi2
 481 028e 11F8F96C 		ldrb	r6, [r1, #-249]	@ zero_extendqisi2
 482 0292 43EA0626 		orr	r6, r3, r6, lsl #8
 483 0296 46F30B16 		sbfx	r6, r6, #4, #12
 398:main.c        ****                     
 399:main.c        ****                     /*scaling to mg (sensitivity=2mg/digit)*/
 400:main.c        ****                     Y_Out[i]=abs(Y_Out[i]*HR_SENSITIVITY_4g);
 484              		.loc 1 400 0
 485 029a 7600     		lsls	r6, r6, #1
 486 029c 002E     		cmp	r6, #0
 487 029e B8BF     		it	lt
 488 02a0 7642     		rsblt	r6, r6, #0
 489 02a2 36B2     		sxth	r6, r6
 401:main.c        ****                     
 402:main.c        ****                      
 403:main.c        ****                     
 404:main.c        ****                     //MSB (x-axis)
 405:main.c        ****                     OutArray[3]=(uint8_t)(Y_Out[i] >> 8);
 406:main.c        ****                     //LSB (x-axis)
 407:main.c        ****                     OutArray[4]=(uint8_t)(Y_Out[i] & 0xFF);
 408:main.c        ****                     
 409:main.c        ****                     // Conversion of output data into right-justified 16 bit int (z-axis)
 410:main.c        ****                     Z_Out[i]=(int16)(AccelerationData[i][4] | (AccelerationData[i][5] << 8)) >> 4;
 490              		.loc 1 410 0
 491 02a4 11F8F83C 		ldrb	r3, [r1, #-248]	@ zero_extendqisi2
 492 02a8 2244     		add	r2, r2, r4
 493 02aa 5100     		lsls	r1, r2, #1
 494 02ac 42AA     		add	r2, sp, #264
 495 02ae 1144     		add	r1, r1, r2
 496 02b0 11F8F77C 		ldrb	r7, [r1, #-247]	@ zero_extendqisi2
 497 02b4 43EA0727 		orr	r7, r3, r7, lsl #8
 498 02b8 47F30B17 		sbfx	r7, r7, #4, #12
 411:main.c        ****                     
 412:main.c        ****                     /*scaling to mg (sensitivity=2mg/digit)*/
 413:main.c        ****                     Z_Out[i]=abs(Z_Out[i]*HR_SENSITIVITY_4g);
ARM GAS  C:\Users\Susanna\AppData\Local\Temp\ccoDTssp.s 			page 17


 499              		.loc 1 413 0
 500 02bc 7F00     		lsls	r7, r7, #1
 501 02be 002F     		cmp	r7, #0
 502 02c0 B8BF     		it	lt
 503 02c2 7F42     		rsblt	r7, r7, #0
 504 02c4 3FB2     		sxth	r7, r7
 414:main.c        ****                     
 415:main.c        ****                     // Change blinking frequency of RGB LED according to acc. values
 416:main.c        ****                     set_PWM(X_Out[i],Y_Out[i],Z_Out[i]);
 505              		.loc 1 416 0
 506 02c6 3A46     		mov	r2, r7
 507 02c8 3146     		mov	r1, r6
 508 02ca 2846     		mov	r0, r5
 509              	.LVL91:
 510 02cc FFF7FEFF 		bl	set_PWM
 511              	.LVL92:
 417:main.c        ****                     
 418:main.c        ****                     //MSB (x-axis)
 419:main.c        ****                     OutArray[5]=(uint8_t)(Z_Out[i] >> 8);
 420:main.c        ****                     //LSB (x-axis)
 421:main.c        ****                     OutArray[6]=(uint8_t)(Z_Out[i] & 0xFF);
 422:main.c        ****                 
 423:main.c        ****                     //UART_PutArray(OutArray,8);
 424:main.c        ****                   sprintf(message, "Acceleration data: %d %d %d\r\n", X_Out[i],Y_Out[i],Z_Out[i]);
 512              		.loc 1 424 0
 513 02d0 0097     		str	r7, [sp]
 514 02d2 3346     		mov	r3, r6
 515 02d4 2A46     		mov	r2, r5
 516 02d6 2949     		ldr	r1, .L33+96
 517 02d8 35A8     		add	r0, sp, #212
 518 02da FFF7FEFF 		bl	sprintf
 519              	.LVL93:
 425:main.c        ****                   UART_PutString(message);
 520              		.loc 1 425 0
 521 02de 35A8     		add	r0, sp, #212
 522 02e0 FFF7FEFF 		bl	UART_PutString
 523              	.LVL94:
 426:main.c        ****                   CyDelay(5);
 524              		.loc 1 426 0
 525 02e4 0520     		movs	r0, #5
 526 02e6 FFF7FEFF 		bl	CyDelay
 527              	.LVL95:
 528              	.L29:
 375:main.c        ****                 {
 529              		.loc 1 375 0 discriminator 2
 530 02ea 0134     		adds	r4, r4, #1
 531              	.LVL96:
 532 02ec E4B2     		uxtb	r4, r4
 533              	.LVL97:
 534 02ee 00E0     		b	.L28
 535              	.LVL98:
 536              	.L31:
 537 02f0 0024     		movs	r4, #0
 538              	.LVL99:
 539              	.L28:
 375:main.c        ****                 {
 540              		.loc 1 375 0 is_stmt 0 discriminator 1
ARM GAS  C:\Users\Susanna\AppData\Local\Temp\ccoDTssp.s 			page 18


 541 02f2 1F2C     		cmp	r4, #31
 542 02f4 ABD9     		bls	.L30
 427:main.c        ****                 
 428:main.c        ****                 }
 429:main.c        ****                 }
 430:main.c        **** 				
 431:main.c        ****                 // Enable Bypass mode
 432:main.c        ****                 fifo_ctrl_reg = LIS3DH_BYPASS_MODE;
 543              		.loc 1 432 0 is_stmt 1
 544 02f6 0022     		movs	r2, #0
 545 02f8 8DF8CF20 		strb	r2, [sp, #207]
 433:main.c        ****                 error = I2C_Peripheral_WriteRegister(LIS3DH_DEVICE_ADDRESS,
 546              		.loc 1 433 0
 547 02fc 2E21     		movs	r1, #46
 548 02fe 1820     		movs	r0, #24
 549 0300 FFF7FEFF 		bl	I2C_Peripheral_WriteRegister
 550              	.LVL100:
 434:main.c        ****                                                      LIS3DH_FIFO_CTRL_REG,
 435:main.c        ****                                                      fifo_ctrl_reg); 
 436:main.c        ****             
 437:main.c        ****                 
 438:main.c        ****             
 439:main.c        ****             CyDelay(10);
 551              		.loc 1 439 0
 552 0304 0A20     		movs	r0, #10
 553 0306 FFF7FEFF 		bl	CyDelay
 554              	.LVL101:
 440:main.c        ****             
 441:main.c        ****             
 442:main.c        ****             // Enable FIFO mode again for next reading
 443:main.c        ****             fifo_ctrl_reg = LIS3DH_FIFO_MODE;
 555              		.loc 1 443 0
 556 030a 4022     		movs	r2, #64
 557 030c 8DF8CF20 		strb	r2, [sp, #207]
 444:main.c        ****             error = I2C_Peripheral_WriteRegister(LIS3DH_DEVICE_ADDRESS,
 558              		.loc 1 444 0
 559 0310 2E21     		movs	r1, #46
 560 0312 1820     		movs	r0, #24
 561 0314 FFF7FEFF 		bl	I2C_Peripheral_WriteRegister
 562              	.LVL102:
 563 0318 8BE7     		b	.L26
 564              	.L34:
 565 031a 00BF     		.align	2
 566              	.L33:
 567 031c 00000000 		.word	.LC0
 568 0320 20000000 		.word	.LC1
 569 0324 5C000000 		.word	.LC2
 570 0328 94000000 		.word	.LC3
 571 032c D0000000 		.word	.LC4
 572 0330 F0000000 		.word	.LC5
 573 0334 2C010000 		.word	.LC6
 574 0338 64010000 		.word	.LC7
 575 033c A0010000 		.word	.LC8
 576 0340 C0010000 		.word	.LC9
 577 0344 FC010000 		.word	.LC10
 578 0348 34020000 		.word	.LC11
 579 034c 70020000 		.word	.LC12
ARM GAS  C:\Users\Susanna\AppData\Local\Temp\ccoDTssp.s 			page 19


 580 0350 90020000 		.word	.LC13
 581 0354 CC020000 		.word	.LC14
 582 0358 04030000 		.word	.LC15
 583 035c 40030000 		.word	.LC16
 584 0360 60030000 		.word	.LC17
 585 0364 A0030000 		.word	.LC18
 586 0368 D8030000 		.word	.LC19
 587 036c 18040000 		.word	.LC20
 588 0370 40040000 		.word	.LC21
 589 0374 88040000 		.word	.LC22
 590 0378 C8040000 		.word	.LC23
 591 037c 10050000 		.word	.LC24
 592              		.cfi_endproc
 593              	.LFE64:
 594              		.size	main, .-main
 595              		.section	.rodata.str1.4,"aMS",%progbits,1
 596              		.align	2
 597              	.LC0:
 598 0000 434F4E54 		.ascii	"CONTROL REGISTER 1: 0x%02X\015\012\000"
 598      524F4C20 
 598      52454749 
 598      53544552 
 598      20313A20 
 599 001d 000000   		.space	3
 600              	.LC1:
 601 0020 4572726F 		.ascii	"Error occurred during I2C comm to read control regi"
 601      72206F63 
 601      63757272 
 601      65642064 
 601      7572696E 
 602 0053 73746572 		.ascii	"ster 1\015\012\000"
 602      20310D0A 
 602      00
 603              	.LC2:
 604 005c 434F4E54 		.ascii	"CONTROL REGISTER 1 successfully written as: 0x%02X\015"
 604      524F4C20 
 604      52454749 
 604      53544552 
 604      20312073 
 605 008f 0A00     		.ascii	"\012\000"
 606 0091 000000   		.space	3
 607              	.LC3:
 608 0094 4572726F 		.ascii	"Error occurred during I2C comm to set control regis"
 608      72206F63 
 608      63757272 
 608      65642064 
 608      7572696E 
 609 00c7 74657220 		.ascii	"ter 1\015\012\000"
 609      310D0A00 
 610 00cf 00       		.space	1
 611              	.LC4:
 612 00d0 434F4E54 		.ascii	"CONTROL REGISTER 3: 0x%02X\015\012\000"
 612      524F4C20 
 612      52454749 
 612      53544552 
 612      20333A20 
 613 00ed 000000   		.space	3
ARM GAS  C:\Users\Susanna\AppData\Local\Temp\ccoDTssp.s 			page 20


 614              	.LC5:
 615 00f0 4572726F 		.ascii	"Error occurred during I2C comm to read control regi"
 615      72206F63 
 615      63757272 
 615      65642064 
 615      7572696E 
 616 0123 73746572 		.ascii	"ster 3\015\012\000"
 616      20330D0A 
 616      00
 617              	.LC6:
 618 012c 434F4E54 		.ascii	"CONTROL REGISTER 3 successfully written as: 0x%02X\015"
 618      524F4C20 
 618      52454749 
 618      53544552 
 618      20332073 
 619 015f 0A00     		.ascii	"\012\000"
 620 0161 000000   		.space	3
 621              	.LC7:
 622 0164 4572726F 		.ascii	"Error occurred during I2C comm to set control regis"
 622      72206F63 
 622      63757272 
 622      65642064 
 622      7572696E 
 623 0197 74657220 		.ascii	"ter 3\015\012\000"
 623      330D0A00 
 624 019f 00       		.space	1
 625              	.LC8:
 626 01a0 434F4E54 		.ascii	"CONTROL REGISTER 4: 0x%02X\015\012\000"
 626      524F4C20 
 626      52454749 
 626      53544552 
 626      20343A20 
 627 01bd 000000   		.space	3
 628              	.LC9:
 629 01c0 4572726F 		.ascii	"Error occurred during I2C comm to read control regi"
 629      72206F63 
 629      63757272 
 629      65642064 
 629      7572696E 
 630 01f3 73746572 		.ascii	"ster 4\015\012\000"
 630      20340D0A 
 630      00
 631              	.LC10:
 632 01fc 434F4E54 		.ascii	"CONTROL REGISTER 4 successfully written as: 0x%02X\015"
 632      524F4C20 
 632      52454749 
 632      53544552 
 632      20342073 
 633 022f 0A00     		.ascii	"\012\000"
 634 0231 000000   		.space	3
 635              	.LC11:
 636 0234 4572726F 		.ascii	"Error occurred during I2C comm to set control regis"
 636      72206F63 
 636      63757272 
 636      65642064 
 636      7572696E 
 637 0267 74657220 		.ascii	"ter 4\015\012\000"
ARM GAS  C:\Users\Susanna\AppData\Local\Temp\ccoDTssp.s 			page 21


 637      340D0A00 
 638 026f 00       		.space	1
 639              	.LC12:
 640 0270 434F4E54 		.ascii	"CONTROL REGISTER 5: 0x%02X\015\012\000"
 640      524F4C20 
 640      52454749 
 640      53544552 
 640      20353A20 
 641 028d 000000   		.space	3
 642              	.LC13:
 643 0290 4572726F 		.ascii	"Error occurred during I2C comm to read control regi"
 643      72206F63 
 643      63757272 
 643      65642064 
 643      7572696E 
 644 02c3 73746572 		.ascii	"ster 5\015\012\000"
 644      20350D0A 
 644      00
 645              	.LC14:
 646 02cc 434F4E54 		.ascii	"CONTROL REGISTER 5 successfully written as: 0x%02X\015"
 646      524F4C20 
 646      52454749 
 646      53544552 
 646      20352073 
 647 02ff 0A00     		.ascii	"\012\000"
 648 0301 000000   		.space	3
 649              	.LC15:
 650 0304 4572726F 		.ascii	"Error occurred during I2C comm to set control regis"
 650      72206F63 
 650      63757272 
 650      65642064 
 650      7572696E 
 651 0337 74657220 		.ascii	"ter 5\015\012\000"
 651      350D0A00 
 652 033f 00       		.space	1
 653              	.LC16:
 654 0340 4649464F 		.ascii	"FIFO CONTROL REGISTER: 0x%02X\015\012\000"
 654      20434F4E 
 654      54524F4C 
 654      20524547 
 654      49535445 
 655              	.LC17:
 656 0360 4572726F 		.ascii	"Error occurred during I2C comm to read FIFO control"
 656      72206F63 
 656      63757272 
 656      65642064 
 656      7572696E 
 657 0393 20726567 		.ascii	" register \015\012\000"
 657      69737465 
 657      72200D0A 
 657      00
 658              	.LC18:
 659 03a0 4649464F 		.ascii	"FIFO CONTROL REGISTER successfully written as: 0x%0"
 659      20434F4E 
 659      54524F4C 
 659      20524547 
 659      49535445 
ARM GAS  C:\Users\Susanna\AppData\Local\Temp\ccoDTssp.s 			page 22


 660 03d3 32580D0A 		.ascii	"2X\015\012\000"
 660      00
 661              	.LC19:
 662 03d8 4572726F 		.ascii	"Error occurred during I2C comm to set FIFO control "
 662      72206F63 
 662      63757272 
 662      65642064 
 662      7572696E 
 663 040b 72656769 		.ascii	"register \015\012\000"
 663      73746572 
 663      200D0A00 
 664 0417 00       		.space	1
 665              	.LC20:
 666 0418 494E5432 		.ascii	"INT2 CONFIGURATION REGISTER: 0x%02X\015\012\000"
 666      20434F4E 
 666      46494755 
 666      52415449 
 666      4F4E2052 
 667 043e 0000     		.space	2
 668              	.LC21:
 669 0440 4572726F 		.ascii	"Error occurred during I2C comm to read INT2 CONFIGU"
 669      72206F63 
 669      63757272 
 669      65642064 
 669      7572696E 
 670 0473 52415449 		.ascii	"RATION REGISTER \015\012\000"
 670      4F4E2052 
 670      45474953 
 670      54455220 
 670      0D0A00
 671 0486 0000     		.space	2
 672              	.LC22:
 673 0488 494E5432 		.ascii	"INT2 CONFIGURATION REGISTER successfully written as"
 673      20434F4E 
 673      46494755 
 673      52415449 
 673      4F4E2052 
 674 04bb 3A203078 		.ascii	": 0x%02X\015\012\000"
 674      25303258 
 674      0D0A00
 675 04c6 0000     		.space	2
 676              	.LC23:
 677 04c8 4572726F 		.ascii	"Error occurred during I2C comm to set INT2 CONFIGUR"
 677      72206F63 
 677      63757272 
 677      65642064 
 677      7572696E 
 678 04fb 4154494F 		.ascii	"ATION REGISTER \015\012\000"
 678      4E205245 
 678      47495354 
 678      4552200D 
 678      0A00
 679 050d 000000   		.space	3
 680              	.LC24:
 681 0510 41636365 		.ascii	"Acceleration data: %d %d %d\015\012\000"
 681      6C657261 
 681      74696F6E 
ARM GAS  C:\Users\Susanna\AppData\Local\Temp\ccoDTssp.s 			page 23


 681      20646174 
 681      613A2025 
 682              		.text
 683              	.Letext0:
 684              		.file 2 "c:\\program files (x86)\\cypress\\psoc creator\\4.3\\psoc creator\\import\\gnu\\arm\\5.4.
 685              		.file 3 "c:\\program files (x86)\\cypress\\psoc creator\\4.3\\psoc creator\\import\\gnu\\arm\\5.4.
 686              		.file 4 "Generated_Source\\PSoC5/cytypes.h"
 687              		.file 5 "ErrorCodes.h"
 688              		.file 6 "I2C_Interface.h"
 689              		.file 7 "Generated_Source\\PSoC5/UART.h"
 690              		.file 8 "RGBLedDriver.h"
 691              		.file 9 "Generated_Source\\PSoC5/CyLib.h"
 692              		.file 10 "c:\\program files (x86)\\cypress\\psoc creator\\4.3\\psoc creator\\import\\gnu\\arm\\5.4
 693              		.file 11 "Generated_Source\\PSoC5/core_cm3.h"