ARM GAS  C:\Users\Susanna\AppData\Local\Temp\ccCQUsgK.s 			page 1


   1              		.syntax unified
   2              		.cpu cortex-m3
   3              		.fpu softvfp
   4              		.eabi_attribute 20, 1
   5              		.eabi_attribute 21, 1
   6              		.eabi_attribute 23, 3
   7              		.eabi_attribute 24, 1
   8              		.eabi_attribute 25, 1
   9              		.eabi_attribute 26, 1
  10              		.eabi_attribute 30, 1
  11              		.eabi_attribute 34, 1
  12              		.eabi_attribute 18, 4
  13              		.thumb
  14              		.syntax unified
  15              		.file	"RGBLedDriver.c"
  16              		.text
  17              	.Ltext0:
  18              		.cfi_sections	.debug_frame
  19              		.section	.text.RGBLed_Start,"ax",%progbits
  20              		.align	2
  21              		.global	RGBLed_Start
  22              		.thumb
  23              		.thumb_func
  24              		.type	RGBLed_Start, %function
  25              	RGBLed_Start:
  26              	.LFB63:
  27              		.file 1 "RGBLedDriver.c"
   1:RGBLedDriver.c **** /* ========================================
   2:RGBLedDriver.c ****  *
   3:RGBLedDriver.c ****  * Copyright YOUR COMPANY, THE YEAR
   4:RGBLedDriver.c ****  * All Rights Reserved
   5:RGBLedDriver.c ****  * UNPUBLISHED, LICENSED SOFTWARE.
   6:RGBLedDriver.c ****  *
   7:RGBLedDriver.c ****  * CONFIDENTIAL AND PROPRIETARY INFORMATION
   8:RGBLedDriver.c ****  * WHICH IS THE PROPERTY OF your company.
   9:RGBLedDriver.c ****  *
  10:RGBLedDriver.c ****  * ========================================
  11:RGBLedDriver.c **** */
  12:RGBLedDriver.c **** #include  "RGBLedDriver.h"
  13:RGBLedDriver.c **** #include "project.h"
  14:RGBLedDriver.c **** 
  15:RGBLedDriver.c **** #define G 1000
  16:RGBLedDriver.c **** #define CONFIDENCE_INTERVAL 20
  17:RGBLedDriver.c **** #define LEVELS 4
  18:RGBLedDriver.c **** #define X 0
  19:RGBLedDriver.c **** #define Y 1
  20:RGBLedDriver.c **** #define Z 2
  21:RGBLedDriver.c **** 
  22:RGBLedDriver.c **** uint16_t step;
  23:RGBLedDriver.c **** uint8_t direction;
  24:RGBLedDriver.c **** 
  25:RGBLedDriver.c **** void RGBLed_Start(void)
  26:RGBLedDriver.c **** {
  28              		.loc 1 26 0
  29              		.cfi_startproc
  30              		@ args = 0, pretend = 0, frame = 0
  31              		@ frame_needed = 0, uses_anonymous_args = 0
ARM GAS  C:\Users\Susanna\AppData\Local\Temp\ccCQUsgK.s 			page 2


  32 0000 08B5     		push	{r3, lr}
  33              		.cfi_def_cfa_offset 8
  34              		.cfi_offset 3, -8
  35              		.cfi_offset 14, -4
  27:RGBLedDriver.c ****     PWM_RG_Start();
  36              		.loc 1 27 0
  37 0002 FFF7FEFF 		bl	PWM_RG_Start
  38              	.LVL0:
  28:RGBLedDriver.c ****     PWM_B_Start();
  39              		.loc 1 28 0
  40 0006 FFF7FEFF 		bl	PWM_B_Start
  41              	.LVL1:
  42 000a 08BD     		pop	{r3, pc}
  43              		.cfi_endproc
  44              	.LFE63:
  45              		.size	RGBLed_Start, .-RGBLed_Start
  46              		.section	.text.RGBLed_Stop,"ax",%progbits
  47              		.align	2
  48              		.global	RGBLed_Stop
  49              		.thumb
  50              		.thumb_func
  51              		.type	RGBLed_Stop, %function
  52              	RGBLed_Stop:
  53              	.LFB64:
  29:RGBLedDriver.c **** }
  30:RGBLedDriver.c **** 
  31:RGBLedDriver.c **** void RGBLed_Stop(void)
  32:RGBLedDriver.c **** {
  54              		.loc 1 32 0
  55              		.cfi_startproc
  56              		@ args = 0, pretend = 0, frame = 0
  57              		@ frame_needed = 0, uses_anonymous_args = 0
  58 0000 08B5     		push	{r3, lr}
  59              		.cfi_def_cfa_offset 8
  60              		.cfi_offset 3, -8
  61              		.cfi_offset 14, -4
  33:RGBLedDriver.c ****     PWM_RG_Stop();
  62              		.loc 1 33 0
  63 0002 FFF7FEFF 		bl	PWM_RG_Stop
  64              	.LVL2:
  34:RGBLedDriver.c ****     PWM_B_Stop();
  65              		.loc 1 34 0
  66 0006 FFF7FEFF 		bl	PWM_B_Stop
  67              	.LVL3:
  68 000a 08BD     		pop	{r3, pc}
  69              		.cfi_endproc
  70              	.LFE64:
  71              		.size	RGBLed_Stop, .-RGBLed_Stop
  72              		.section	.text.set_PWM,"ax",%progbits
  73              		.align	2
  74              		.global	set_PWM
  75              		.thumb
  76              		.thumb_func
  77              		.type	set_PWM, %function
  78              	set_PWM:
  79              	.LFB65:
  35:RGBLedDriver.c **** }
ARM GAS  C:\Users\Susanna\AppData\Local\Temp\ccCQUsgK.s 			page 3


  36:RGBLedDriver.c **** 
  37:RGBLedDriver.c **** 
  38:RGBLedDriver.c **** 
  39:RGBLedDriver.c **** void set_PWM(int16_t X_Out,int16_t Y_Out,int16_t Z_Out)
  40:RGBLedDriver.c **** {
  80              		.loc 1 40 0
  81              		.cfi_startproc
  82              		@ args = 0, pretend = 0, frame = 0
  83              		@ frame_needed = 0, uses_anonymous_args = 0
  84              	.LVL4:
  85 0000 F8B5     		push	{r3, r4, r5, r6, r7, lr}
  86              		.cfi_def_cfa_offset 24
  87              		.cfi_offset 3, -24
  88              		.cfi_offset 4, -20
  89              		.cfi_offset 5, -16
  90              		.cfi_offset 6, -12
  91              		.cfi_offset 7, -8
  92              		.cfi_offset 14, -4
  93 0002 0546     		mov	r5, r0
  94 0004 0E46     		mov	r6, r1
  95 0006 1746     		mov	r7, r2
  41:RGBLedDriver.c ****     step=(4000-(G+CONFIDENCE_INTERVAL))/LEVELS; //cambia in base al FS -> METTI FS COME INPUT
  96              		.loc 1 41 0
  97 0008 40F2E922 		movw	r2, #745
  98              	.LVL5:
  99 000c 9D4B     		ldr	r3, .L23
 100 000e 1A80     		strh	r2, [r3]	@ movhi
  42:RGBLedDriver.c ****     
  43:RGBLedDriver.c ****     if((X_Out>=G-CONFIDENCE_INTERVAL) && (X_Out<=G+CONFIDENCE_INTERVAL))
 101              		.loc 1 43 0
 102 0010 A0F57574 		sub	r4, r0, #980
 103 0014 A4B2     		uxth	r4, r4
 104 0016 282C     		cmp	r4, #40
 105 0018 03D8     		bhi	.L6
  44:RGBLedDriver.c ****     {
  45:RGBLedDriver.c ****         direction=X;   
 106              		.loc 1 45 0
 107 001a 0022     		movs	r2, #0
 108 001c 9A4B     		ldr	r3, .L23+4
 109 001e 1A70     		strb	r2, [r3]
 110 0020 10E0     		b	.L7
 111              	.L6:
  46:RGBLedDriver.c ****     }
  47:RGBLedDriver.c ****     
  48:RGBLedDriver.c ****     else if((Y_Out>=G-CONFIDENCE_INTERVAL) && (Y_Out<=G+CONFIDENCE_INTERVAL))
 112              		.loc 1 48 0
 113 0022 A1F57573 		sub	r3, r1, #980
 114 0026 9BB2     		uxth	r3, r3
 115 0028 282B     		cmp	r3, #40
 116 002a 03D8     		bhi	.L8
  49:RGBLedDriver.c ****     {
  50:RGBLedDriver.c ****         direction=Y;
 117              		.loc 1 50 0
 118 002c 0122     		movs	r2, #1
 119 002e 964B     		ldr	r3, .L23+4
 120 0030 1A70     		strb	r2, [r3]
 121 0032 07E0     		b	.L7
ARM GAS  C:\Users\Susanna\AppData\Local\Temp\ccCQUsgK.s 			page 4


 122              	.L8:
  51:RGBLedDriver.c ****     }
  52:RGBLedDriver.c ****     
  53:RGBLedDriver.c ****     else if((Z_Out>=G-CONFIDENCE_INTERVAL) && (Z_Out<=G+CONFIDENCE_INTERVAL))
 123              		.loc 1 53 0
 124 0034 A7F57573 		sub	r3, r7, #980
 125 0038 9BB2     		uxth	r3, r3
 126 003a 282B     		cmp	r3, #40
 127 003c 02D8     		bhi	.L7
  54:RGBLedDriver.c ****     {
  55:RGBLedDriver.c ****         direction=Z;            
 128              		.loc 1 55 0
 129 003e 0222     		movs	r2, #2
 130 0040 914B     		ldr	r3, .L23+4
 131 0042 1A70     		strb	r2, [r3]
 132              	.L7:
  56:RGBLedDriver.c ****     }
  57:RGBLedDriver.c ****    
  58:RGBLedDriver.c ****     switch(direction)
 133              		.loc 1 58 0
 134 0044 904B     		ldr	r3, .L23+4
 135 0046 1B78     		ldrb	r3, [r3]	@ zero_extendqisi2
 136 0048 012B     		cmp	r3, #1
 137 004a 61D0     		beq	.L10
 138 004c 1BB1     		cbz	r3, .L11
 139 004e 022B     		cmp	r3, #2
 140 0050 00F0BC80 		beq	.L12
 141 0054 F8BD     		pop	{r3, r4, r5, r6, r7, pc}
 142              	.L11:
  59:RGBLedDriver.c ****     {
  60:RGBLedDriver.c ****         case X:
  61:RGBLedDriver.c ****         RGBLed_Stop();
 143              		.loc 1 61 0
 144 0056 FFF7FEFF 		bl	RGBLed_Stop
 145              	.LVL6:
  62:RGBLedDriver.c ****         PWM_RG_WritePeriod(255);
 146              		.loc 1 62 0
 147 005a FF20     		movs	r0, #255
 148 005c FFF7FEFF 		bl	PWM_RG_WritePeriod
 149              	.LVL7:
  63:RGBLedDriver.c ****         PWM_RG_WriteCompare2(0);
 150              		.loc 1 63 0
 151 0060 0020     		movs	r0, #0
 152 0062 FFF7FEFF 		bl	PWM_RG_WriteCompare2
 153              	.LVL8:
  64:RGBLedDriver.c ****         PWM_B_WritePeriod(255);
 154              		.loc 1 64 0
 155 0066 FF20     		movs	r0, #255
 156 0068 FFF7FEFF 		bl	PWM_B_WritePeriod
 157              	.LVL9:
  65:RGBLedDriver.c ****         PWM_B_WriteCompare(0);
 158              		.loc 1 65 0
 159 006c 0020     		movs	r0, #0
 160 006e FFF7FEFF 		bl	PWM_B_WriteCompare
 161              	.LVL10:
  66:RGBLedDriver.c ****         RGBLed_Start();
 162              		.loc 1 66 0
ARM GAS  C:\Users\Susanna\AppData\Local\Temp\ccCQUsgK.s 			page 5


 163 0072 FFF7FEFF 		bl	RGBLed_Start
 164              	.LVL11:
  67:RGBLedDriver.c ****         if ((X_Out>=G-CONFIDENCE_INTERVAL) && (X_Out<=G+CONFIDENCE_INTERVAL))
 165              		.loc 1 67 0
 166 0076 282C     		cmp	r4, #40
 167 0078 0AD8     		bhi	.L13
  68:RGBLedDriver.c ****         {
  69:RGBLedDriver.c ****           RGBLed_Stop();
 168              		.loc 1 69 0
 169 007a FFF7FEFF 		bl	RGBLed_Stop
 170              	.LVL12:
  70:RGBLedDriver.c ****           PWM_RG_WritePeriod(255);
 171              		.loc 1 70 0
 172 007e FF20     		movs	r0, #255
 173 0080 FFF7FEFF 		bl	PWM_RG_WritePeriod
 174              	.LVL13:
  71:RGBLedDriver.c ****           PWM_RG_WriteCompare1(255);
 175              		.loc 1 71 0
 176 0084 FF20     		movs	r0, #255
 177 0086 FFF7FEFF 		bl	PWM_RG_WriteCompare1
 178              	.LVL14:
  72:RGBLedDriver.c ****           RGBLed_Start();
 179              		.loc 1 72 0
 180 008a FFF7FEFF 		bl	RGBLed_Start
 181              	.LVL15:
 182 008e F8BD     		pop	{r3, r4, r5, r6, r7, pc}
 183              	.L13:
  73:RGBLedDriver.c ****         }
  74:RGBLedDriver.c ****         
  75:RGBLedDriver.c ****         else if((X_Out>G+CONFIDENCE_INTERVAL) && (X_Out<=G+CONFIDENCE_INTERVAL+step))
 184              		.loc 1 75 0
 185 0090 B5F57F7F 		cmp	r5, #1020
 186 0094 10DD     		ble	.L14
 187              		.loc 1 75 0 is_stmt 0 discriminator 1
 188 0096 7B4B     		ldr	r3, .L23
 189 0098 1B88     		ldrh	r3, [r3]
 190 009a 03F57F73 		add	r3, r3, #1020
 191 009e 9D42     		cmp	r5, r3
 192 00a0 0ADC     		bgt	.L14
  76:RGBLedDriver.c ****         {
  77:RGBLedDriver.c ****           RGBLed_Stop();
 193              		.loc 1 77 0 is_stmt 1
 194 00a2 FFF7FEFF 		bl	RGBLed_Stop
 195              	.LVL16:
  78:RGBLedDriver.c ****           PWM_RG_WritePeriod(65);
 196              		.loc 1 78 0
 197 00a6 4120     		movs	r0, #65
 198 00a8 FFF7FEFF 		bl	PWM_RG_WritePeriod
 199              	.LVL17:
  79:RGBLedDriver.c ****           PWM_RG_WriteCompare1(32);  
 200              		.loc 1 79 0
 201 00ac 2020     		movs	r0, #32
 202 00ae FFF7FEFF 		bl	PWM_RG_WriteCompare1
 203              	.LVL18:
  80:RGBLedDriver.c ****           RGBLed_Start();
 204              		.loc 1 80 0
 205 00b2 FFF7FEFF 		bl	RGBLed_Start
ARM GAS  C:\Users\Susanna\AppData\Local\Temp\ccCQUsgK.s 			page 6


 206              	.LVL19:
 207 00b6 F8BD     		pop	{r3, r4, r5, r6, r7, pc}
 208              	.L14:
  81:RGBLedDriver.c ****         }   
  82:RGBLedDriver.c ****         else if ((X_Out>G+CONFIDENCE_INTERVAL+step) && (X_Out<=G+CONFIDENCE_INTERVAL+2*step))
 209              		.loc 1 82 0
 210 00b8 724B     		ldr	r3, .L23
 211 00ba 1B88     		ldrh	r3, [r3]
 212 00bc 03F57F72 		add	r2, r3, #1020
 213 00c0 9542     		cmp	r5, r2
 214 00c2 0FDD     		ble	.L15
 215              		.loc 1 82 0 is_stmt 0 discriminator 1
 216 00c4 03F5FF72 		add	r2, r3, #510
 217 00c8 B5EB420F 		cmp	r5, r2, lsl #1
 218 00cc 0ADC     		bgt	.L15
  83:RGBLedDriver.c ****         {
  84:RGBLedDriver.c ****           RGBLed_Stop();
 219              		.loc 1 84 0 is_stmt 1
 220 00ce FFF7FEFF 		bl	RGBLed_Stop
 221              	.LVL20:
  85:RGBLedDriver.c ****           PWM_RG_WritePeriod(32);
 222              		.loc 1 85 0
 223 00d2 2020     		movs	r0, #32
 224 00d4 FFF7FEFF 		bl	PWM_RG_WritePeriod
 225              	.LVL21:
  86:RGBLedDriver.c ****           PWM_RG_WriteCompare1(16);  
 226              		.loc 1 86 0
 227 00d8 1020     		movs	r0, #16
 228 00da FFF7FEFF 		bl	PWM_RG_WriteCompare1
 229              	.LVL22:
  87:RGBLedDriver.c ****           RGBLed_Start();
 230              		.loc 1 87 0
 231 00de FFF7FEFF 		bl	RGBLed_Start
 232              	.LVL23:
 233 00e2 F8BD     		pop	{r3, r4, r5, r6, r7, pc}
 234              	.L15:
  88:RGBLedDriver.c ****         }  
  89:RGBLedDriver.c ****         else if ((X_Out>G+CONFIDENCE_INTERVAL+2*step) && (X_Out<=G+CONFIDENCE_INTERVAL+4*step))
 235              		.loc 1 89 0
 236 00e4 03F5FF72 		add	r2, r3, #510
 237 00e8 B5EB420F 		cmp	r5, r2, lsl #1
 238 00ec 40F3C880 		ble	.L5
 239              		.loc 1 89 0 is_stmt 0 discriminator 1
 240 00f0 FF33     		adds	r3, r3, #255
 241 00f2 B5EB830F 		cmp	r5, r3, lsl #2
 242 00f6 00F3C380 		bgt	.L5
  90:RGBLedDriver.c ****         {
  91:RGBLedDriver.c ****           RGBLed_Stop();
 243              		.loc 1 91 0 is_stmt 1
 244 00fa FFF7FEFF 		bl	RGBLed_Stop
 245              	.LVL24:
  92:RGBLedDriver.c ****           PWM_RG_WritePeriod(16);
 246              		.loc 1 92 0
 247 00fe 1020     		movs	r0, #16
 248 0100 FFF7FEFF 		bl	PWM_RG_WritePeriod
 249              	.LVL25:
  93:RGBLedDriver.c ****           PWM_RG_WriteCompare1(8);
ARM GAS  C:\Users\Susanna\AppData\Local\Temp\ccCQUsgK.s 			page 7


 250              		.loc 1 93 0
 251 0104 0820     		movs	r0, #8
 252 0106 FFF7FEFF 		bl	PWM_RG_WriteCompare1
 253              	.LVL26:
  94:RGBLedDriver.c ****           RGBLed_Start();
 254              		.loc 1 94 0
 255 010a FFF7FEFF 		bl	RGBLed_Start
 256              	.LVL27:
 257 010e F8BD     		pop	{r3, r4, r5, r6, r7, pc}
 258              	.LVL28:
 259              	.L10:
  95:RGBLedDriver.c ****         }  
  96:RGBLedDriver.c ****         break;
  97:RGBLedDriver.c ****         
  98:RGBLedDriver.c ****         case Y:
  99:RGBLedDriver.c ****         RGBLed_Stop();
 260              		.loc 1 99 0
 261 0110 FFF7FEFF 		bl	RGBLed_Stop
 262              	.LVL29:
 100:RGBLedDriver.c ****         PWM_RG_WritePeriod(255);
 263              		.loc 1 100 0
 264 0114 FF20     		movs	r0, #255
 265 0116 FFF7FEFF 		bl	PWM_RG_WritePeriod
 266              	.LVL30:
 101:RGBLedDriver.c ****         PWM_RG_WriteCompare1(0);
 267              		.loc 1 101 0
 268 011a 0020     		movs	r0, #0
 269 011c FFF7FEFF 		bl	PWM_RG_WriteCompare1
 270              	.LVL31:
 102:RGBLedDriver.c ****         PWM_B_WritePeriod(255);
 271              		.loc 1 102 0
 272 0120 FF20     		movs	r0, #255
 273 0122 FFF7FEFF 		bl	PWM_B_WritePeriod
 274              	.LVL32:
 103:RGBLedDriver.c ****         PWM_B_WriteCompare(0);
 275              		.loc 1 103 0
 276 0126 0020     		movs	r0, #0
 277 0128 FFF7FEFF 		bl	PWM_B_WriteCompare
 278              	.LVL33:
 104:RGBLedDriver.c ****         RGBLed_Start();
 279              		.loc 1 104 0
 280 012c FFF7FEFF 		bl	RGBLed_Start
 281              	.LVL34:
 105:RGBLedDriver.c ****         if ((Y_Out>=G-CONFIDENCE_INTERVAL) && (Y_Out<=G+CONFIDENCE_INTERVAL))
 282              		.loc 1 105 0
 283 0130 A6F57573 		sub	r3, r6, #980
 284 0134 9BB2     		uxth	r3, r3
 285 0136 282B     		cmp	r3, #40
 286 0138 0AD8     		bhi	.L16
 106:RGBLedDriver.c ****         {
 107:RGBLedDriver.c ****           RGBLed_Stop();
 287              		.loc 1 107 0
 288 013a FFF7FEFF 		bl	RGBLed_Stop
 289              	.LVL35:
 108:RGBLedDriver.c ****           PWM_RG_WritePeriod(255);
 290              		.loc 1 108 0
 291 013e FF20     		movs	r0, #255
ARM GAS  C:\Users\Susanna\AppData\Local\Temp\ccCQUsgK.s 			page 8


 292 0140 FFF7FEFF 		bl	PWM_RG_WritePeriod
 293              	.LVL36:
 109:RGBLedDriver.c ****           PWM_RG_WriteCompare2(255);
 294              		.loc 1 109 0
 295 0144 FF20     		movs	r0, #255
 296 0146 FFF7FEFF 		bl	PWM_RG_WriteCompare2
 297              	.LVL37:
 110:RGBLedDriver.c ****           RGBLed_Start();
 298              		.loc 1 110 0
 299 014a FFF7FEFF 		bl	RGBLed_Start
 300              	.LVL38:
 301 014e F8BD     		pop	{r3, r4, r5, r6, r7, pc}
 302              	.L16:
 111:RGBLedDriver.c ****         }
 112:RGBLedDriver.c ****         else if((Y_Out>G+CONFIDENCE_INTERVAL) && (Y_Out<=G+CONFIDENCE_INTERVAL+step))
 303              		.loc 1 112 0
 304 0150 B6F57F7F 		cmp	r6, #1020
 305 0154 10DD     		ble	.L17
 306              		.loc 1 112 0 is_stmt 0 discriminator 1
 307 0156 4B4B     		ldr	r3, .L23
 308 0158 1B88     		ldrh	r3, [r3]
 309 015a 03F57F73 		add	r3, r3, #1020
 310 015e 9E42     		cmp	r6, r3
 311 0160 0ADC     		bgt	.L17
 113:RGBLedDriver.c ****         {
 114:RGBLedDriver.c ****           RGBLed_Stop();
 312              		.loc 1 114 0 is_stmt 1
 313 0162 FFF7FEFF 		bl	RGBLed_Stop
 314              	.LVL39:
 115:RGBLedDriver.c ****           PWM_RG_WritePeriod(65);
 315              		.loc 1 115 0
 316 0166 4120     		movs	r0, #65
 317 0168 FFF7FEFF 		bl	PWM_RG_WritePeriod
 318              	.LVL40:
 116:RGBLedDriver.c ****           PWM_RG_WriteCompare2(32);  
 319              		.loc 1 116 0
 320 016c 2020     		movs	r0, #32
 321 016e FFF7FEFF 		bl	PWM_RG_WriteCompare2
 322              	.LVL41:
 117:RGBLedDriver.c ****           RGBLed_Start();
 323              		.loc 1 117 0
 324 0172 FFF7FEFF 		bl	RGBLed_Start
 325              	.LVL42:
 326 0176 F8BD     		pop	{r3, r4, r5, r6, r7, pc}
 327              	.L17:
 118:RGBLedDriver.c ****         }   
 119:RGBLedDriver.c ****         else if ((Y_Out>G+CONFIDENCE_INTERVAL+step) && (Y_Out<=G+CONFIDENCE_INTERVAL+2*step))
 328              		.loc 1 119 0
 329 0178 424B     		ldr	r3, .L23
 330 017a 1B88     		ldrh	r3, [r3]
 331 017c 03F57F72 		add	r2, r3, #1020
 332 0180 9642     		cmp	r6, r2
 333 0182 0FDD     		ble	.L18
 334              		.loc 1 119 0 is_stmt 0 discriminator 1
 335 0184 03F5FF72 		add	r2, r3, #510
 336 0188 B6EB420F 		cmp	r6, r2, lsl #1
 337 018c 0ADC     		bgt	.L18
ARM GAS  C:\Users\Susanna\AppData\Local\Temp\ccCQUsgK.s 			page 9


 120:RGBLedDriver.c ****         {
 121:RGBLedDriver.c ****           RGBLed_Stop();
 338              		.loc 1 121 0 is_stmt 1
 339 018e FFF7FEFF 		bl	RGBLed_Stop
 340              	.LVL43:
 122:RGBLedDriver.c ****           PWM_RG_WritePeriod(32);
 341              		.loc 1 122 0
 342 0192 2020     		movs	r0, #32
 343 0194 FFF7FEFF 		bl	PWM_RG_WritePeriod
 344              	.LVL44:
 123:RGBLedDriver.c ****           PWM_RG_WriteCompare2(16);  
 345              		.loc 1 123 0
 346 0198 1020     		movs	r0, #16
 347 019a FFF7FEFF 		bl	PWM_RG_WriteCompare2
 348              	.LVL45:
 124:RGBLedDriver.c ****           RGBLed_Start();
 349              		.loc 1 124 0
 350 019e FFF7FEFF 		bl	RGBLed_Start
 351              	.LVL46:
 352 01a2 F8BD     		pop	{r3, r4, r5, r6, r7, pc}
 353              	.L18:
 125:RGBLedDriver.c ****         }  
 126:RGBLedDriver.c ****         else if ((Y_Out>G+CONFIDENCE_INTERVAL+2*step) && (Y_Out<=G+CONFIDENCE_INTERVAL+4*step))
 354              		.loc 1 126 0
 355 01a4 03F5FF72 		add	r2, r3, #510
 356 01a8 B6EB420F 		cmp	r6, r2, lsl #1
 357 01ac 68DD     		ble	.L5
 358              		.loc 1 126 0 is_stmt 0 discriminator 1
 359 01ae FF33     		adds	r3, r3, #255
 360 01b0 B6EB830F 		cmp	r6, r3, lsl #2
 361 01b4 64DC     		bgt	.L5
 127:RGBLedDriver.c ****         {
 128:RGBLedDriver.c ****           RGBLed_Stop();
 362              		.loc 1 128 0 is_stmt 1
 363 01b6 FFF7FEFF 		bl	RGBLed_Stop
 364              	.LVL47:
 129:RGBLedDriver.c ****           PWM_RG_WritePeriod(16);
 365              		.loc 1 129 0
 366 01ba 1020     		movs	r0, #16
 367 01bc FFF7FEFF 		bl	PWM_RG_WritePeriod
 368              	.LVL48:
 130:RGBLedDriver.c ****           PWM_RG_WriteCompare2(8); 
 369              		.loc 1 130 0
 370 01c0 0820     		movs	r0, #8
 371 01c2 FFF7FEFF 		bl	PWM_RG_WriteCompare2
 372              	.LVL49:
 131:RGBLedDriver.c ****           RGBLed_Start();
 373              		.loc 1 131 0
 374 01c6 FFF7FEFF 		bl	RGBLed_Start
 375              	.LVL50:
 376 01ca F8BD     		pop	{r3, r4, r5, r6, r7, pc}
 377              	.LVL51:
 378              	.L12:
 132:RGBLedDriver.c ****         }  
 133:RGBLedDriver.c ****         break;
 134:RGBLedDriver.c ****         
 135:RGBLedDriver.c ****         case Z:
ARM GAS  C:\Users\Susanna\AppData\Local\Temp\ccCQUsgK.s 			page 10


 136:RGBLedDriver.c ****         RGBLed_Stop();
 379              		.loc 1 136 0
 380 01cc FFF7FEFF 		bl	RGBLed_Stop
 381              	.LVL52:
 137:RGBLedDriver.c ****         PWM_RG_WritePeriod(255);
 382              		.loc 1 137 0
 383 01d0 FF20     		movs	r0, #255
 384 01d2 FFF7FEFF 		bl	PWM_RG_WritePeriod
 385              	.LVL53:
 138:RGBLedDriver.c ****         PWM_RG_WriteCompare1(0);
 386              		.loc 1 138 0
 387 01d6 0020     		movs	r0, #0
 388 01d8 FFF7FEFF 		bl	PWM_RG_WriteCompare1
 389              	.LVL54:
 139:RGBLedDriver.c ****         PWM_RG_WriteCompare2(0);
 390              		.loc 1 139 0
 391 01dc 0020     		movs	r0, #0
 392 01de FFF7FEFF 		bl	PWM_RG_WriteCompare2
 393              	.LVL55:
 140:RGBLedDriver.c ****         RGBLed_Start();
 394              		.loc 1 140 0
 395 01e2 FFF7FEFF 		bl	RGBLed_Start
 396              	.LVL56:
 141:RGBLedDriver.c ****         if ((Z_Out>=G-CONFIDENCE_INTERVAL) && (Z_Out<=G+CONFIDENCE_INTERVAL))
 397              		.loc 1 141 0
 398 01e6 A7F57573 		sub	r3, r7, #980
 399 01ea 9BB2     		uxth	r3, r3
 400 01ec 282B     		cmp	r3, #40
 401 01ee 0AD8     		bhi	.L19
 142:RGBLedDriver.c ****         {
 143:RGBLedDriver.c ****           RGBLed_Stop();
 402              		.loc 1 143 0
 403 01f0 FFF7FEFF 		bl	RGBLed_Stop
 404              	.LVL57:
 144:RGBLedDriver.c ****           PWM_B_WritePeriod(255);
 405              		.loc 1 144 0
 406 01f4 FF20     		movs	r0, #255
 407 01f6 FFF7FEFF 		bl	PWM_B_WritePeriod
 408              	.LVL58:
 145:RGBLedDriver.c ****           PWM_B_WriteCompare(255);
 409              		.loc 1 145 0
 410 01fa FF20     		movs	r0, #255
 411 01fc FFF7FEFF 		bl	PWM_B_WriteCompare
 412              	.LVL59:
 146:RGBLedDriver.c ****           RGBLed_Start();
 413              		.loc 1 146 0
 414 0200 FFF7FEFF 		bl	RGBLed_Start
 415              	.LVL60:
 416 0204 F8BD     		pop	{r3, r4, r5, r6, r7, pc}
 417              	.L19:
 147:RGBLedDriver.c ****         }
 148:RGBLedDriver.c ****         else if((Z_Out>G+CONFIDENCE_INTERVAL) && (Z_Out<=G+CONFIDENCE_INTERVAL+step))
 418              		.loc 1 148 0
 419 0206 B7F57F7F 		cmp	r7, #1020
 420 020a 10DD     		ble	.L20
 421              		.loc 1 148 0 is_stmt 0 discriminator 1
 422 020c 1D4B     		ldr	r3, .L23
ARM GAS  C:\Users\Susanna\AppData\Local\Temp\ccCQUsgK.s 			page 11


 423 020e 1B88     		ldrh	r3, [r3]
 424 0210 03F57F73 		add	r3, r3, #1020
 425 0214 9F42     		cmp	r7, r3
 426 0216 0ADC     		bgt	.L20
 149:RGBLedDriver.c ****         {
 150:RGBLedDriver.c ****           RGBLed_Stop();
 427              		.loc 1 150 0 is_stmt 1
 428 0218 FFF7FEFF 		bl	RGBLed_Stop
 429              	.LVL61:
 151:RGBLedDriver.c ****           PWM_B_WritePeriod(65);
 430              		.loc 1 151 0
 431 021c 4120     		movs	r0, #65
 432 021e FFF7FEFF 		bl	PWM_B_WritePeriod
 433              	.LVL62:
 152:RGBLedDriver.c ****           PWM_B_WriteCompare(32); 
 434              		.loc 1 152 0
 435 0222 2020     		movs	r0, #32
 436 0224 FFF7FEFF 		bl	PWM_B_WriteCompare
 437              	.LVL63:
 153:RGBLedDriver.c ****           RGBLed_Start();
 438              		.loc 1 153 0
 439 0228 FFF7FEFF 		bl	RGBLed_Start
 440              	.LVL64:
 441 022c F8BD     		pop	{r3, r4, r5, r6, r7, pc}
 442              	.L20:
 154:RGBLedDriver.c ****         }   
 155:RGBLedDriver.c ****         else if ((Z_Out>G+CONFIDENCE_INTERVAL+step) && (Z_Out<=G+CONFIDENCE_INTERVAL+2*step))
 443              		.loc 1 155 0
 444 022e 154B     		ldr	r3, .L23
 445 0230 1B88     		ldrh	r3, [r3]
 446 0232 03F57F72 		add	r2, r3, #1020
 447 0236 9742     		cmp	r7, r2
 448 0238 0FDD     		ble	.L21
 449              		.loc 1 155 0 is_stmt 0 discriminator 1
 450 023a 03F5FF72 		add	r2, r3, #510
 451 023e B7EB420F 		cmp	r7, r2, lsl #1
 452 0242 0ADC     		bgt	.L21
 156:RGBLedDriver.c ****         {
 157:RGBLedDriver.c ****           RGBLed_Stop();
 453              		.loc 1 157 0 is_stmt 1
 454 0244 FFF7FEFF 		bl	RGBLed_Stop
 455              	.LVL65:
 158:RGBLedDriver.c ****           PWM_B_WritePeriod(32);
 456              		.loc 1 158 0
 457 0248 2020     		movs	r0, #32
 458 024a FFF7FEFF 		bl	PWM_B_WritePeriod
 459              	.LVL66:
 159:RGBLedDriver.c ****           PWM_B_WriteCompare(16);
 460              		.loc 1 159 0
 461 024e 1020     		movs	r0, #16
 462 0250 FFF7FEFF 		bl	PWM_B_WriteCompare
 463              	.LVL67:
 160:RGBLedDriver.c ****           RGBLed_Start();
 464              		.loc 1 160 0
 465 0254 FFF7FEFF 		bl	RGBLed_Start
 466              	.LVL68:
 467 0258 F8BD     		pop	{r3, r4, r5, r6, r7, pc}
ARM GAS  C:\Users\Susanna\AppData\Local\Temp\ccCQUsgK.s 			page 12


 468              	.L21:
 161:RGBLedDriver.c ****         }  
 162:RGBLedDriver.c ****         else if ((Z_Out>G+CONFIDENCE_INTERVAL+2*step) && (Z_Out<=G+CONFIDENCE_INTERVAL+4*step))
 469              		.loc 1 162 0
 470 025a 03F5FF72 		add	r2, r3, #510
 471 025e B7EB420F 		cmp	r7, r2, lsl #1
 472 0262 0DDD     		ble	.L5
 473              		.loc 1 162 0 is_stmt 0 discriminator 1
 474 0264 FF33     		adds	r3, r3, #255
 475 0266 B7EB830F 		cmp	r7, r3, lsl #2
 476 026a 09DC     		bgt	.L5
 163:RGBLedDriver.c ****         {
 164:RGBLedDriver.c ****           RGBLed_Stop();
 477              		.loc 1 164 0 is_stmt 1
 478 026c FFF7FEFF 		bl	RGBLed_Stop
 479              	.LVL69:
 165:RGBLedDriver.c ****           PWM_B_WritePeriod(16);
 480              		.loc 1 165 0
 481 0270 1020     		movs	r0, #16
 482 0272 FFF7FEFF 		bl	PWM_B_WritePeriod
 483              	.LVL70:
 166:RGBLedDriver.c ****           PWM_B_WriteCompare(8);  
 484              		.loc 1 166 0
 485 0276 0820     		movs	r0, #8
 486 0278 FFF7FEFF 		bl	PWM_B_WriteCompare
 487              	.LVL71:
 167:RGBLedDriver.c ****           RGBLed_Start();
 488              		.loc 1 167 0
 489 027c FFF7FEFF 		bl	RGBLed_Start
 490              	.LVL72:
 491              	.L5:
 492 0280 F8BD     		pop	{r3, r4, r5, r6, r7, pc}
 493              	.L24:
 494 0282 00BF     		.align	2
 495              	.L23:
 496 0284 00000000 		.word	step
 497 0288 00000000 		.word	direction
 498              		.cfi_endproc
 499              	.LFE65:
 500              		.size	set_PWM, .-set_PWM
 501              		.comm	direction,1,1
 502              		.comm	step,2,2
 503              		.text
 504              	.Letext0:
 505              		.file 2 "c:\\program files (x86)\\cypress\\psoc creator\\4.3\\psoc creator\\import\\gnu\\arm\\5.4.
 506              		.file 3 "c:\\program files (x86)\\cypress\\psoc creator\\4.3\\psoc creator\\import\\gnu\\arm\\5.4.
 507              		.file 4 "Generated_Source\\PSoC5/core_cm3.h"
 508              		.file 5 "Generated_Source\\PSoC5/PWM_RG.h"
 509              		.file 6 "Generated_Source\\PSoC5/PWM_B.h"